ccopy_reg
_reconstructor
p0
(cpandas.core.frame
DataFrame
p1
c__builtin__
object
p2
Ntp3
Rp4
(dp5
S'_metadata'
p6
(lp7
sS'_typ'
p8
S'dataframe'
p9
sS'_data'
p10
g0
(cpandas.core.internals
BlockManager
p11
g2
Ntp12
Rp13
((lp14
cpandas.core.indexes.base
_new_Index
p15
(cpandas.core.indexes.base
Index
p16
(dp17
S'data'
p18
cnumpy.core.multiarray
_reconstruct
p19
(cnumpy
ndarray
p20
(I0
tp21
S'b'
p22
tp23
Rp24
(I1
(I22
tp25
cnumpy
dtype
p26
(S'O8'
p27
I0
I1
tp28
Rp29
(I3
S'|'
p30
NNNI-1
I-1
I63
tp31
bI00
(lp32
V_links
p33
aVcode
p34
aVexternals
p35
aVgenres
p36
aVid
p37
aVimage
p38
aVlanguage
p39
aVmessage
p40
aVname
p41
aVnetwork
p42
aVofficialSite
p43
aVpremiered
p44
aVrating
p45
aVruntime
p46
aVschedule
p47
aVstatus
p48
aVsummary
p49
aVtype
p50
aVupdated
p51
aVurl
p52
aVwebChannel
p53
aVweight
p54
atp55
bsS'name'
p56
Nstp57
Rp58
ag15
(cpandas.core.indexes.range
RangeIndex
p59
(dp60
S'start'
p61
I0
sS'step'
p62
I1
sS'stop'
p63
I229
sg56
Nstp64
Rp65
a(lp66
g19
(g20
(I0
tp67
g22
tp68
Rp69
(I1
(I1
I229
tp70
g29
I00
(lp71
(dp72
Vpreviousepisode
p73
(dp74
Vhref
p75
Vhttp://api.tvmaze.com/episodes/758003
p76
ssVself
p77
(dp78
Vhref
p79
Vhttp://api.tvmaze.com/shows/6068
p80
ssa(dp81
Vpreviousepisode
p82
(dp83
Vhref
p84
Vhttp://api.tvmaze.com/episodes/374858
p85
ssVself
p86
(dp87
Vhref
p88
Vhttp://api.tvmaze.com/shows/2821
p89
ssa(dp90
Vpreviousepisode
p91
(dp92
Vhref
p93
Vhttp://api.tvmaze.com/episodes/967380
p94
ssVself
p95
(dp96
Vhref
p97
Vhttp://api.tvmaze.com/shows/15577
p98
ssa(dp99
Vpreviousepisode
p100
(dp101
Vhref
p102
Vhttp://api.tvmaze.com/episodes/139587
p103
ssVself
p104
(dp105
Vhref
p106
Vhttp://api.tvmaze.com/shows/1353
p107
ssa(dp108
Vpreviousepisode
p109
(dp110
Vhref
p111
Vhttp://api.tvmaze.com/episodes/1153066
p112
ssVself
p113
(dp114
Vhref
p115
Vhttp://api.tvmaze.com/shows/27498
p116
ssa(dp117
Vpreviousepisode
p118
(dp119
Vhref
p120
Vhttp://api.tvmaze.com/episodes/1237482
p121
ssVself
p122
(dp123
Vhref
p124
Vhttp://api.tvmaze.com/shows/26839
p125
ssa(dp126
Vpreviousepisode
p127
(dp128
Vhref
p129
Vhttp://api.tvmaze.com/episodes/541687
p130
ssVself
p131
(dp132
Vhref
p133
Vhttp://api.tvmaze.com/shows/10611
p134
ssa(dp135
Vpreviousepisode
p136
(dp137
Vhref
p138
Vhttp://api.tvmaze.com/episodes/971561
p139
ssVself
p140
(dp141
Vhref
p142
Vhttp://api.tvmaze.com/shows/22326
p143
ssa(dp144
Vpreviousepisode
p145
(dp146
Vhref
p147
Vhttp://api.tvmaze.com/episodes/1174170
p148
ssVself
p149
(dp150
Vhref
p151
Vhttp://api.tvmaze.com/shows/28161
p152
ssa(dp153
Vpreviousepisode
p154
(dp155
Vhref
p156
Vhttp://api.tvmaze.com/episodes/945681
p157
ssVself
p158
(dp159
Vhref
p160
Vhttp://api.tvmaze.com/shows/21642
p161
ssa(dp162
Vpreviousepisode
p163
(dp164
Vhref
p165
Vhttp://api.tvmaze.com/episodes/1057673
p166
ssVself
p167
(dp168
Vhref
p169
Vhttp://api.tvmaze.com/shows/24979
p170
ssaFnan
a(dp171
Vpreviousepisode
p172
(dp173
Vhref
p174
Vhttp://api.tvmaze.com/episodes/1182750
p175
ssVself
p176
(dp177
Vhref
p178
Vhttp://api.tvmaze.com/shows/17470
p179
ssa(dp180
Vpreviousepisode
p181
(dp182
Vhref
p183
Vhttp://api.tvmaze.com/episodes/870272
p184
ssVself
p185
(dp186
Vhref
p187
Vhttp://api.tvmaze.com/shows/10031
p188
ssa(dp189
Vpreviousepisode
p190
(dp191
Vhref
p192
Vhttp://api.tvmaze.com/episodes/895806
p193
ssVself
p194
(dp195
Vhref
p196
Vhttp://api.tvmaze.com/shows/20107
p197
ssa(dp198
Vpreviousepisode
p199
(dp200
Vhref
p201
Vhttp://api.tvmaze.com/episodes/636833
p202
ssVself
p203
(dp204
Vhref
p205
Vhttp://api.tvmaze.com/shows/13778
p206
ssa(dp207
Vpreviousepisode
p208
(dp209
Vhref
p210
Vhttp://api.tvmaze.com/episodes/1257394
p211
ssVself
p212
(dp213
Vhref
p214
Vhttp://api.tvmaze.com/shows/27772
p215
ssVnextepisode
p216
(dp217
Vhref
p218
Vhttp://api.tvmaze.com/episodes/1257395
p219
ssa(dp220
Vpreviousepisode
p221
(dp222
Vhref
p223
Vhttp://api.tvmaze.com/episodes/518352
p224
ssVself
p225
(dp226
Vhref
p227
Vhttp://api.tvmaze.com/shows/9653
p228
ssa(dp229
Vpreviousepisode
p230
(dp231
Vhref
p232
Vhttp://api.tvmaze.com/episodes/698711
p233
ssVself
p234
(dp235
Vhref
p236
Vhttp://api.tvmaze.com/shows/15368
p237
ssa(dp238
Vpreviousepisode
p239
(dp240
Vhref
p241
Vhttp://api.tvmaze.com/episodes/952646
p242
ssVself
p243
(dp244
Vhref
p245
Vhttp://api.tvmaze.com/shows/21795
p246
ssa(dp247
Vpreviousepisode
p248
(dp249
Vhref
p250
Vhttp://api.tvmaze.com/episodes/622943
p251
ssVself
p252
(dp253
Vhref
p254
Vhttp://api.tvmaze.com/shows/13192
p255
ssa(dp256
Vpreviousepisode
p257
(dp258
Vhref
p259
Vhttp://api.tvmaze.com/episodes/423606
p260
ssVself
p261
(dp262
Vhref
p263
Vhttp://api.tvmaze.com/shows/7503
p264
ssa(dp265
Vpreviousepisode
p266
(dp267
Vhref
p268
Vhttp://api.tvmaze.com/episodes/850757
p269
ssVself
p270
(dp271
Vhref
p272
Vhttp://api.tvmaze.com/shows/18826
p273
ssa(dp274
Vpreviousepisode
p275
(dp276
Vhref
p277
Vhttp://api.tvmaze.com/episodes/823221
p278
ssVself
p279
(dp280
Vhref
p281
Vhttp://api.tvmaze.com/shows/18000
p282
ssa(dp283
Vpreviousepisode
p284
(dp285
Vhref
p286
Vhttp://api.tvmaze.com/episodes/1151201
p287
ssVself
p288
(dp289
Vhref
p290
Vhttp://api.tvmaze.com/shows/5792
p291
ssa(dp292
Vpreviousepisode
p293
(dp294
Vhref
p295
Vhttp://api.tvmaze.com/episodes/1005782
p296
ssVself
p297
(dp298
Vhref
p299
Vhttp://api.tvmaze.com/shows/23399
p300
ssa(dp301
Vpreviousepisode
p302
(dp303
Vhref
p304
Vhttp://api.tvmaze.com/episodes/767184
p305
ssVself
p306
(dp307
Vhref
p308
Vhttp://api.tvmaze.com/shows/16680
p309
ssa(dp310
Vpreviousepisode
p311
(dp312
Vhref
p313
Vhttp://api.tvmaze.com/episodes/1089308
p314
ssVself
p315
(dp316
Vhref
p317
Vhttp://api.tvmaze.com/shows/25685
p318
ssa(dp319
Vpreviousepisode
p320
(dp321
Vhref
p322
Vhttp://api.tvmaze.com/episodes/566275
p323
ssVself
p324
(dp325
Vhref
p326
Vhttp://api.tvmaze.com/shows/11488
p327
ssa(dp328
Vpreviousepisode
p329
(dp330
Vhref
p331
Vhttp://api.tvmaze.com/episodes/934311
p332
ssVself
p333
(dp334
Vhref
p335
Vhttp://api.tvmaze.com/shows/21327
p336
ssa(dp337
Vpreviousepisode
p338
(dp339
Vhref
p340
Vhttp://api.tvmaze.com/episodes/1208964
p341
ssVself
p342
(dp343
Vhref
p344
Vhttp://api.tvmaze.com/shows/22084
p345
ssa(dp346
Vpreviousepisode
p347
(dp348
Vhref
p349
Vhttp://api.tvmaze.com/episodes/549632
p350
ssVself
p351
(dp352
Vhref
p353
Vhttp://api.tvmaze.com/shows/10630
p354
ssa(dp355
Vpreviousepisode
p356
(dp357
Vhref
p358
Vhttp://api.tvmaze.com/episodes/1005902
p359
ssVself
p360
(dp361
Vhref
p362
Vhttp://api.tvmaze.com/shows/23404
p363
ssa(dp364
Vpreviousepisode
p365
(dp366
Vhref
p367
Vhttp://api.tvmaze.com/episodes/434298
p368
ssVself
p369
(dp370
Vhref
p371
Vhttp://api.tvmaze.com/shows/3989
p372
ssa(dp373
Vpreviousepisode
p374
(dp375
Vhref
p376
Vhttp://api.tvmaze.com/episodes/1165094
p377
ssVself
p378
(dp379
Vhref
p380
Vhttp://api.tvmaze.com/shows/27942
p381
ssaFnan
aFnan
aFnan
aFnan
aFnan
aFnan
aFnan
a(dp382
Vpreviousepisode
p383
(dp384
Vhref
p385
Vhttp://api.tvmaze.com/episodes/1162316
p386
ssVself
p387
(dp388
Vhref
p389
Vhttp://api.tvmaze.com/shows/27854
p390
ssa(dp391
Vpreviousepisode
p392
(dp393
Vhref
p394
Vhttp://api.tvmaze.com/episodes/1204492
p395
ssVself
p396
(dp397
Vhref
p398
Vhttp://api.tvmaze.com/shows/575
p399
ssVnextepisode
p400
(dp401
Vhref
p402
Vhttp://api.tvmaze.com/episodes/1273123
p403
ssa(dp404
Vpreviousepisode
p405
(dp406
Vhref
p407
Vhttp://api.tvmaze.com/episodes/1105622
p408
ssVself
p409
(dp410
Vhref
p411
Vhttp://api.tvmaze.com/shows/4711
p412
ssa(dp413
Vpreviousepisode
p414
(dp415
Vhref
p416
Vhttp://api.tvmaze.com/episodes/1206919
p417
ssVself
p418
(dp419
Vhref
p420
Vhttp://api.tvmaze.com/shows/29066
p421
ssa(dp422
Vpreviousepisode
p423
(dp424
Vhref
p425
Vhttp://api.tvmaze.com/episodes/1268623
p426
ssVself
p427
(dp428
Vhref
p429
Vhttp://api.tvmaze.com/shows/390
p430
ssa(dp431
Vpreviousepisode
p432
(dp433
Vhref
p434
Vhttp://api.tvmaze.com/episodes/333800
p435
ssVself
p436
(dp437
Vhref
p438
Vhttp://api.tvmaze.com/shows/5493
p439
ssaFnan
aFnan
aFnan
aFnan
aFnan
aFnan
aFnan
aFnan
aFnan
aFnan
aFnan
aFnan
aFnan
aFnan
aFnan
aFnan
aFnan
aFnan
aFnan
aFnan
aFnan
aFnan
aFnan
a(dp440
Vpreviousepisode
p441
(dp442
Vhref
p443
Vhttp://api.tvmaze.com/episodes/1260610
p444
ssVself
p445
(dp446
Vhref
p447
Vhttp://api.tvmaze.com/shows/6048
p448
ssa(dp449
Vpreviousepisode
p450
(dp451
Vhref
p452
Vhttp://api.tvmaze.com/episodes/889483
p453
ssVself
p454
(dp455
Vhref
p456
Vhttp://api.tvmaze.com/shows/6936
p457
ssa(dp458
Vpreviousepisode
p459
(dp460
Vhref
p461
Vhttp://api.tvmaze.com/episodes/710752
p462
ssVself
p463
(dp464
Vhref
p465
Vhttp://api.tvmaze.com/shows/6853
p466
ssa(dp467
Vpreviousepisode
p468
(dp469
Vhref
p470
Vhttp://api.tvmaze.com/episodes/329118
p471
ssVself
p472
(dp473
Vhref
p474
Vhttp://api.tvmaze.com/shows/5424
p475
ssa(dp476
Vpreviousepisode
p477
(dp478
Vhref
p479
Vhttp://api.tvmaze.com/episodes/306256
p480
ssVself
p481
(dp482
Vhref
p483
Vhttp://api.tvmaze.com/shows/4815
p484
ssa(dp485
Vpreviousepisode
p486
(dp487
Vhref
p488
Vhttp://api.tvmaze.com/episodes/1052998
p489
ssVself
p490
(dp491
Vhref
p492
Vhttp://api.tvmaze.com/shows/24852
p493
ssa(dp494
Vpreviousepisode
p495
(dp496
Vhref
p497
Vhttp://api.tvmaze.com/episodes/479038
p498
ssVself
p499
(dp500
Vhref
p501
Vhttp://api.tvmaze.com/shows/8707
p502
ssa(dp503
Vpreviousepisode
p504
(dp505
Vhref
p506
Vhttp://api.tvmaze.com/episodes/934278
p507
ssVself
p508
(dp509
Vhref
p510
Vhttp://api.tvmaze.com/shows/21198
p511
ssa(dp512
Vpreviousepisode
p513
(dp514
Vhref
p515
Vhttp://api.tvmaze.com/episodes/1033210
p516
ssVself
p517
(dp518
Vhref
p519
Vhttp://api.tvmaze.com/shows/24229
p520
ssa(dp521
Vpreviousepisode
p522
(dp523
Vhref
p524
Vhttp://api.tvmaze.com/episodes/501100
p525
ssVself
p526
(dp527
Vhref
p528
Vhttp://api.tvmaze.com/shows/9247
p529
ssa(dp530
Vself
p531
(dp532
Vhref
p533
Vhttp://api.tvmaze.com/shows/17668
p534
ssaFnan
aFnan
aFnan
aFnan
aFnan
aFnan
aFnan
aFnan
aFnan
aFnan
aFnan
aFnan
aFnan
aFnan
aFnan
aFnan
aFnan
aFnan
aFnan
aFnan
aFnan
a(dp535
Vpreviousepisode
p536
(dp537
Vhref
p538
Vhttp://api.tvmaze.com/episodes/1090324
p539
ssVself
p540
(dp541
Vhref
p542
Vhttp://api.tvmaze.com/shows/914
p543
ssa(dp544
Vpreviousepisode
p545
(dp546
Vhref
p547
Vhttp://api.tvmaze.com/episodes/543155
p548
ssVself
p549
(dp550
Vhref
p551
Vhttp://api.tvmaze.com/shows/10674
p552
ssa(dp553
Vpreviousepisode
p554
(dp555
Vhref
p556
Vhttp://api.tvmaze.com/episodes/613535
p557
ssVself
p558
(dp559
Vhref
p560
Vhttp://api.tvmaze.com/shows/12937
p561
ssa(dp562
Vpreviousepisode
p563
(dp564
Vhref
p565
Vhttp://api.tvmaze.com/episodes/940510
p566
ssVself
p567
(dp568
Vhref
p569
Vhttp://api.tvmaze.com/shows/21505
p570
ssa(dp571
Vpreviousepisode
p572
(dp573
Vhref
p574
Vhttp://api.tvmaze.com/episodes/1119441
p575
ssVself
p576
(dp577
Vhref
p578
Vhttp://api.tvmaze.com/shows/26707
p579
ssa(dp580
Vpreviousepisode
p581
(dp582
Vhref
p583
Vhttp://api.tvmaze.com/episodes/1028428
p584
ssVself
p585
(dp586
Vhref
p587
Vhttp://api.tvmaze.com/shows/24110
p588
ssa(dp589
Vpreviousepisode
p590
(dp591
Vhref
p592
Vhttp://api.tvmaze.com/episodes/365605
p593
ssVself
p594
(dp595
Vhref
p596
Vhttp://api.tvmaze.com/shows/6122
p597
ssaFnan
aFnan
aFnan
aFnan
aFnan
aFnan
aFnan
aFnan
aFnan
aFnan
aFnan
aFnan
aFnan
aFnan
aFnan
aFnan
aFnan
aFnan
aFnan
aFnan
aFnan
aFnan
a(dp598
Vpreviousepisode
p599
(dp600
Vhref
p601
Vhttp://api.tvmaze.com/episodes/1210926
p602
ssVself
p603
(dp604
Vhref
p605
Vhttp://api.tvmaze.com/shows/743
p606
ssa(dp607
Vpreviousepisode
p608
(dp609
Vhref
p610
Vhttp://api.tvmaze.com/episodes/1151394
p611
ssVself
p612
(dp613
Vhref
p614
Vhttp://api.tvmaze.com/shows/2098
p615
ssa(dp616
Vpreviousepisode
p617
(dp618
Vhref
p619
Vhttp://api.tvmaze.com/episodes/308145
p620
ssVself
p621
(dp622
Vhref
p623
Vhttp://api.tvmaze.com/shows/4865
p624
ssa(dp625
Vpreviousepisode
p626
(dp627
Vhref
p628
Vhttp://api.tvmaze.com/episodes/1122232
p629
ssVself
p630
(dp631
Vhref
p632
Vhttp://api.tvmaze.com/shows/26780
p633
ssa(dp634
Vpreviousepisode
p635
(dp636
Vhref
p637
Vhttp://api.tvmaze.com/episodes/93283
p638
ssVself
p639
(dp640
Vhref
p641
Vhttp://api.tvmaze.com/shows/959
p642
ssa(dp643
Vpreviousepisode
p644
(dp645
Vhref
p646
Vhttp://api.tvmaze.com/episodes/501734
p647
ssVself
p648
(dp649
Vhref
p650
Vhttp://api.tvmaze.com/shows/9263
p651
ssa(dp652
Vpreviousepisode
p653
(dp654
Vhref
p655
Vhttp://api.tvmaze.com/episodes/528877
p656
ssVself
p657
(dp658
Vhref
p659
Vhttp://api.tvmaze.com/shows/10016
p660
ssa(dp661
Vpreviousepisode
p662
(dp663
Vhref
p664
Vhttp://api.tvmaze.com/episodes/185282
p665
ssVself
p666
(dp667
Vhref
p668
Vhttp://api.tvmaze.com/shows/2314
p669
ssa(dp670
Vpreviousepisode
p671
(dp672
Vhref
p673
Vhttp://api.tvmaze.com/episodes/319036
p674
ssVself
p675
(dp676
Vhref
p677
Vhttp://api.tvmaze.com/shows/5219
p678
ssa(dp679
Vpreviousepisode
p680
(dp681
Vhref
p682
Vhttp://api.tvmaze.com/episodes/1001155
p683
ssVself
p684
(dp685
Vhref
p686
Vhttp://api.tvmaze.com/shows/23202
p687
ssaFnan
aFnan
aFnan
aFnan
aFnan
aFnan
aFnan
aFnan
aFnan
aFnan
aFnan
aFnan
aFnan
aFnan
aFnan
aFnan
aFnan
a(dp688
Vpreviousepisode
p689
(dp690
Vhref
p691
Vhttp://api.tvmaze.com/episodes/339020
p692
ssVself
p693
(dp694
Vhref
p695
Vhttp://api.tvmaze.com/shows/5614
p696
ssa(dp697
Vpreviousepisode
p698
(dp699
Vhref
p700
Vhttp://api.tvmaze.com/episodes/100850
p701
ssVself
p702
(dp703
Vhref
p704
Vhttp://api.tvmaze.com/shows/419
p705
ssa(dp706
Vpreviousepisode
p707
(dp708
Vhref
p709
Vhttp://api.tvmaze.com/episodes/343369
p710
ssVself
p711
(dp712
Vhref
p713
Vhttp://api.tvmaze.com/shows/5713
p714
ssa(dp715
Vpreviousepisode
p716
(dp717
Vhref
p718
Vhttp://api.tvmaze.com/episodes/1004469
p719
ssVself
p720
(dp721
Vhref
p722
Vhttp://api.tvmaze.com/shows/9950
p723
ssa(dp724
Vpreviousepisode
p725
(dp726
Vhref
p727
Vhttp://api.tvmaze.com/episodes/710773
p728
ssVself
p729
(dp730
Vhref
p731
Vhttp://api.tvmaze.com/shows/13904
p732
ssa(dp733
Vpreviousepisode
p734
(dp735
Vhref
p736
Vhttp://api.tvmaze.com/episodes/653535
p737
ssVself
p738
(dp739
Vhref
p740
Vhttp://api.tvmaze.com/shows/2937
p741
ssa(dp742
Vpreviousepisode
p743
(dp744
Vhref
p745
Vhttp://api.tvmaze.com/episodes/878464
p746
ssVself
p747
(dp748
Vhref
p749
Vhttp://api.tvmaze.com/shows/19519
p750
ssa(dp751
Vpreviousepisode
p752
(dp753
Vhref
p754
Vhttp://api.tvmaze.com/episodes/662030
p755
ssVself
p756
(dp757
Vhref
p758
Vhttp://api.tvmaze.com/shows/14508
p759
ssa(dp760
Vpreviousepisode
p761
(dp762
Vhref
p763
Vhttp://api.tvmaze.com/episodes/941923
p764
ssVself
p765
(dp766
Vhref
p767
Vhttp://api.tvmaze.com/shows/21526
p768
ssa(dp769
Vpreviousepisode
p770
(dp771
Vhref
p772
Vhttp://api.tvmaze.com/episodes/893259
p773
ssVself
p774
(dp775
Vhref
p776
Vhttp://api.tvmaze.com/shows/19980
p777
ssaFnan
aFnan
aFnan
aFnan
aFnan
aFnan
aFnan
aFnan
aFnan
aFnan
aFnan
aFnan
aFnan
aFnan
aFnan
aFnan
aFnan
aFnan
aFnan
aFnan
aFnan
aFnan
aFnan
aFnan
a(dp778
Vpreviousepisode
p779
(dp780
Vhref
p781
Vhttp://api.tvmaze.com/episodes/1118963
p782
ssVself
p783
(dp784
Vhref
p785
Vhttp://api.tvmaze.com/shows/25277
p786
ssa(dp787
Vpreviousepisode
p788
(dp789
Vhref
p790
Vhttp://api.tvmaze.com/episodes/181177
p791
ssVself
p792
(dp793
Vhref
p794
Vhttp://api.tvmaze.com/shows/2204
p795
ssa(dp796
Vpreviousepisode
p797
(dp798
Vhref
p799
Vhttp://api.tvmaze.com/episodes/841060
p800
ssVself
p801
(dp802
Vhref
p803
Vhttp://api.tvmaze.com/shows/18511
p804
ssa(dp805
Vpreviousepisode
p806
(dp807
Vhref
p808
Vhttp://api.tvmaze.com/episodes/308820
p809
ssVself
p810
(dp811
Vhref
p812
Vhttp://api.tvmaze.com/shows/4893
p813
ssa(dp814
Vpreviousepisode
p815
(dp816
Vhref
p817
Vhttp://api.tvmaze.com/episodes/338040
p818
ssVself
p819
(dp820
Vhref
p821
Vhttp://api.tvmaze.com/shows/5597
p822
ssa(dp823
Vpreviousepisode
p824
(dp825
Vhref
p826
Vhttp://api.tvmaze.com/episodes/474106
p827
ssVself
p828
(dp829
Vhref
p830
Vhttp://api.tvmaze.com/shows/8616
p831
ssa(dp832
Vpreviousepisode
p833
(dp834
Vhref
p835
Vhttp://api.tvmaze.com/episodes/674045
p836
ssVself
p837
(dp838
Vhref
p839
Vhttp://api.tvmaze.com/shows/12029
p840
ssa(dp841
Vpreviousepisode
p842
(dp843
Vhref
p844
Vhttp://api.tvmaze.com/episodes/184570
p845
ssVself
p846
(dp847
Vhref
p848
Vhttp://api.tvmaze.com/shows/2407
p849
ssaFnan
aFnan
aFnan
aFnan
aFnan
aFnan
aFnan
aFnan
aFnan
aFnan
aFnan
aFnan
aFnan
aFnan
aFnan
aFnan
aFnan
aFnan
aFnan
aFnan
a(dp850
Vpreviousepisode
p851
(dp852
Vhref
p853
Vhttp://api.tvmaze.com/episodes/1029076
p854
ssVself
p855
(dp856
Vhref
p857
Vhttp://api.tvmaze.com/shows/24135
p858
ssa(dp859
Vpreviousepisode
p860
(dp861
Vhref
p862
Vhttp://api.tvmaze.com/episodes/646003
p863
ssVself
p864
(dp865
Vhref
p866
Vhttp://api.tvmaze.com/shows/14013
p867
ssa(dp868
Vpreviousepisode
p869
(dp870
Vhref
p871
Vhttp://api.tvmaze.com/episodes/104048
p872
ssVself
p873
(dp874
Vhref
p875
Vhttp://api.tvmaze.com/shows/1138
p876
ssa(dp877
Vpreviousepisode
p878
(dp879
Vhref
p880
Vhttp://api.tvmaze.com/episodes/156970
p881
ssVself
p882
(dp883
Vhref
p884
Vhttp://api.tvmaze.com/shows/969
p885
ssa(dp886
Vpreviousepisode
p887
(dp888
Vhref
p889
Vhttp://api.tvmaze.com/episodes/508471
p890
ssVself
p891
(dp892
Vhref
p893
Vhttp://api.tvmaze.com/shows/2369
p894
ssa(dp895
Vpreviousepisode
p896
(dp897
Vhref
p898
Vhttp://api.tvmaze.com/episodes/1132479
p899
ssVself
p900
(dp901
Vhref
p902
Vhttp://api.tvmaze.com/shows/9066
p903
ssa(dp904
Vpreviousepisode
p905
(dp906
Vhref
p907
Vhttp://api.tvmaze.com/episodes/400793
p908
ssVself
p909
(dp910
Vhref
p911
Vhttp://api.tvmaze.com/shows/6924
p912
ssaFnan
atp913
bag19
(g20
(I0
tp914
g22
tp915
Rp916
(I1
(I1
I229
tp917
g29
I00
(lp918
Fnan
aFnan
aFnan
aFnan
aFnan
aFnan
aFnan
aFnan
aFnan
aFnan
aFnan
aI0
aFnan
aFnan
aFnan
aFnan
aFnan
aFnan
aFnan
aFnan
aFnan
aFnan
aFnan
aFnan
aFnan
aFnan
aFnan
aFnan
aFnan
aFnan
aFnan
aFnan
aFnan
aFnan
aFnan
aI0
aI0
aI0
aI0
aI0
aI0
aI0
aFnan
aFnan
aFnan
aFnan
aFnan
aFnan
aI0
aI0
aI0
aI0
aI0
aI0
aI0
aI0
aI0
aI0
aI0
aI0
aI0
aI0
aI0
aI0
aI0
aI0
aI0
aI0
aI0
aI0
aI0
aFnan
aFnan
aFnan
aFnan
aFnan
aFnan
aFnan
aFnan
aFnan
aFnan
aFnan
aI0
aI0
aI0
aI0
aI0
aI0
aI0
aI0
aI0
aI0
aI0
aI0
aI0
aI0
aI0
aI0
aI0
aI0
aI0
aI0
aI0
aFnan
aFnan
aFnan
aFnan
aFnan
aFnan
aFnan
aI0
aI0
aI0
aI0
aI0
aI0
aI0
aI0
aI0
aI0
aI0
aI0
aI0
aI0
aI0
aI0
aI0
aI0
aI0
aI0
aI0
aI0
aFnan
aFnan
aFnan
aFnan
aFnan
aFnan
aFnan
aFnan
aFnan
aFnan
aI0
aI0
aI0
aI0
aI0
aI0
aI0
aI0
aI0
aI0
aI0
aI0
aI0
aI0
aI0
aI0
aI0
aFnan
aFnan
aFnan
aFnan
aFnan
aFnan
aFnan
aFnan
aFnan
aFnan
aI0
aI0
aI0
aI0
aI0
aI0
aI0
aI0
aI0
aI0
aI0
aI0
aI0
aI0
aI0
aI0
aI0
aI0
aI0
aI0
aI0
aI0
aI0
aI0
aFnan
aFnan
aFnan
aFnan
aFnan
aFnan
aFnan
aFnan
aI0
aI0
aI0
aI0
aI0
aI0
aI0
aI0
aI0
aI0
aI0
aI0
aI0
aI0
aI0
aI0
aI0
aI0
aI0
aI0
aFnan
aFnan
aFnan
aFnan
aFnan
aFnan
aFnan
aI0
atp919
bag19
(g20
(I0
tp920
g22
tp921
Rp922
(I1
(I5
I229
tp923
g29
I00
(lp924
(dp925
Vthetvdb
p926
I283995
sVtvrage
p927
I40425
sVimdb
p928
Vtt2058498
p929
sa(dp930
Vthetvdb
p931
I299234
sVtvrage
p932
I50418
sVimdb
p933
Vtt4566242
p934
sa(dp935
Vthetvdb
p936
I118021
sVtvrage
p937
NsVimdb
p938
Vtt1364951
p939
sa(dp940
Vthetvdb
p941
I274705
sVtvrage
p942
I31580
sVimdb
p943
Vtt2341819
p944
sa(dp945
Vthetvdb
p946
I246161
sVtvrage
p947
NsVimdb
p948
Vtt1893088
p949
sa(dp950
Vthetvdb
p951
I75638
sVtvrage
p952
NsVimdb
p953
Vtt0445890
p954
sa(dp955
Vthetvdb
p956
I260183
sVtvrage
p957
I31024
sVimdb
p958
Vtt2279571
p959
sa(dp960
Vthetvdb
p961
NsVtvrage
p962
NsVimdb
p963
Vtt1733734
p964
sa(dp965
Vthetvdb
p966
I299688
sVtvrage
p967
NsVimdb
p968
Vtt1372153
p969
sa(dp970
Vthetvdb
p971
I222481
sVtvrage
p972
NsVimdb
p973
Vtt1817054
p974
sa(dp975
Vthetvdb
p976
I269263
sVtvrage
p977
NsVimdb
p978
Vtt2879822
p979
saFnan
a(dp980
Vthetvdb
p981
I73296
sVtvrage
p982
NsVimdb
p983
Vtt0190177
p984
sa(dp985
Vthetvdb
p986
I305657
sVtvrage
p987
I46387
sVimdb
p988
Vtt5047510
p989
sa(dp990
Vthetvdb
p991
NsVtvrage
p992
NsVimdb
p993
Vtt5338860
p994
sa(dp995
Vthetvdb
p996
I240151
sVtvrage
p997
I27740
sVimdb
p998
Vtt1848281
p999
sa(dp1000
Vthetvdb
p1001
NsVtvrage
p1002
NsVimdb
p1003
Vtt6839504
p1004
sa(dp1005
Vthetvdb
p1006
I262938
sVtvrage
p1007
I32008
sVimdb
p1008
Vtt2114184
p1009
sa(dp1010
Vthetvdb
p1011
I170151
sVtvrage
p1012
NsVimdb
p1013
Vtt1674023
p1014
sa(dp1015
Vthetvdb
p1016
I249491
sVtvrage
p1017
NsVimdb
p1018
Vtt1971860
p1019
sa(dp1020
Vthetvdb
p1021
I273535
sVtvrage
p1022
NsVimdb
p1023
Vtt3100634
p1024
sa(dp1025
Vthetvdb
p1026
I248625
sVtvrage
p1027
NsVimdb
p1028
Vtt1936732
p1029
sa(dp1030
Vthetvdb
p1031
I82125
sVtvrage
p1032
NsVimdb
p1033
Vtt1197582
p1034
sa(dp1035
Vthetvdb
p1036
I248722
sVtvrage
p1037
NsVimdb
p1038
Vtt1485389
p1039
sa(dp1040
Vthetvdb
p1041
I261286
sVtvrage
p1042
I32058
sVimdb
p1043
Vtt2288050
p1044
sa(dp1045
Vthetvdb
p1046
I144601
sVtvrage
p1047
NsVimdb
p1048
Vtt1612920
p1049
sa(dp1050
Vthetvdb
p1051
I74104
sVtvrage
p1052
I6231
sVimdb
p1053
Vtt0402701
p1054
sa(dp1055
Vthetvdb
p1056
NsVtvrage
p1057
NsVimdb
p1058
Vtt0491735
p1059
sa(dp1060
Vthetvdb
p1061
I265700
sVtvrage
p1062
NsVimdb
p1063
Vtt2369946
p1064
sa(dp1065
Vthetvdb
p1066
I80474
sVtvrage
p1067
NsVimdb
p1068
Vtt0990403
p1069
sa(dp1070
Vthetvdb
p1071
I318145
sVtvrage
p1072
NsVimdb
p1073
Vtt6148376
p1074
sa(dp1075
Vthetvdb
p1076
I145511
sVtvrage
p1077
NsVimdb
p1078
Vtt1429551
p1079
sa(dp1080
Vthetvdb
p1081
I198961
sVtvrage
p1082
NsVimdb
p1083
Vtt1586637
p1084
sa(dp1085
Vthetvdb
p1086
I300466
sVtvrage
p1087
NsVimdb
p1088
Vtt4873032
p1089
sa(dp1090
Vthetvdb
p1091
I275307
sVtvrage
p1092
NsVimdb
p1093
Vtt3293566
p1094
saFnan
aFnan
aFnan
aFnan
aFnan
aFnan
aFnan
a(dp1095
Vthetvdb
p1096
I259883
sVtvrage
p1097
NsVimdb
p1098
Vtt2235190
p1099
sa(dp1100
Vthetvdb
p1101
I80725
sVtvrage
p1102
I17638
sVimdb
p1103
Vtt1086761
p1104
sa(dp1105
Vthetvdb
p1106
I292478
sVtvrage
p1107
I48889
sVimdb
p1108
Vtt4214468
p1109
sa(dp1110
Vthetvdb
p1111
I329798
sVtvrage
p1112
NsVimdb
p1113
Vtt5937940
p1114
sa(dp1115
Vthetvdb
p1116
I78057
sVtvrage
p1117
I4188
sVimdb
p1118
Vtt0305056
p1119
sa(dp1120
Vthetvdb
p1121
I228691
sVtvrage
p1122
I27604
sVimdb
p1123
Vtt1833558
p1124
saFnan
aFnan
aFnan
aFnan
aFnan
aFnan
aFnan
aFnan
aFnan
aFnan
aFnan
aFnan
aFnan
aFnan
aFnan
aFnan
aFnan
aFnan
aFnan
aFnan
aFnan
aFnan
aFnan
a(dp1125
Vthetvdb
p1126
I72104
sVtvrage
p1127
NsVimdb
p1128
Vtt0123366
p1129
sa(dp1130
Vthetvdb
p1131
I278482
sVtvrage
p1132
I34785
sVimdb
p1133
Vtt3481544
p1134
sa(dp1135
Vthetvdb
p1136
I298658
sVtvrage
p1137
NsVimdb
p1138
Vtt5335110
p1139
sa(dp1140
Vthetvdb
p1141
I85440
sVtvrage
p1142
I18806
sVimdb
p1143
Vtt1332074
p1144
sa(dp1145
Vthetvdb
p1146
I82491
sVtvrage
p1147
I19356
sVimdb
p1148
Vtt1259798
p1149
sa(dp1150
Vthetvdb
p1151
NsVtvrage
p1152
NsVimdb
p1153
Vtt2953706
p1154
sa(dp1155
Vthetvdb
p1156
I84313
sVtvrage
p1157
NsVimdb
p1158
Vtt1244881
p1159
sa(dp1160
Vthetvdb
p1161
I84550
sVtvrage
p1162
NsVimdb
p1163
Vtt1232190
p1164
sa(dp1165
Vthetvdb
p1166
I284084
sVtvrage
p1167
NsVimdb
p1168
Vtt3859844
p1169
sa(dp1170
Vthetvdb
p1171
I267156
sVtvrage
p1172
I34283
sVimdb
p1173
Vtt2262354
p1174
sa(dp1175
Vthetvdb
p1176
NsVtvrage
p1177
NsVimdb
p1178
Vtt0283714
p1179
saFnan
aFnan
aFnan
aFnan
aFnan
aFnan
aFnan
aFnan
aFnan
aFnan
aFnan
aFnan
aFnan
aFnan
aFnan
aFnan
aFnan
aFnan
aFnan
aFnan
aFnan
a(dp1180
Vthetvdb
p1181
I70869
sVtvrage
p1182
I5593
sVimdb
p1183
Vtt0313038
p1184
sa(dp1185
Vthetvdb
p1186
I264033
sVtvrage
p1187
I30687
sVimdb
p1188
Vtt2453016
p1189
sa(dp1190
Vthetvdb
p1191
I82880
sVtvrage
p1192
NsVimdb
p1193
Vtt1277979
p1194
sa(dp1195
Vthetvdb
p1196
I82655
sVtvrage
p1197
NsVimdb
p1198
Vtt1024814
p1199
sa(dp1200
Vthetvdb
p1201
I209341
sVtvrage
p1202
NsVimdb
p1203
Vtt1770959
p1204
sa(dp1205
Vthetvdb
p1206
I286271
sVtvrage
p1207
NsVimdb
p1208
Vtt3731648
p1209
sa(dp1210
Vthetvdb
p1211
I256064
sVtvrage
p1212
I30578
sVimdb
p1213
Vtt4410468
p1214
saFnan
aFnan
aFnan
aFnan
aFnan
aFnan
aFnan
aFnan
aFnan
aFnan
aFnan
aFnan
aFnan
aFnan
aFnan
aFnan
aFnan
aFnan
aFnan
aFnan
aFnan
aFnan
a(dp1215
Vthetvdb
p1216
I71187
sVtvrage
p1217
I5594
sVimdb
p1218
Vtt0348894
p1219
sa(dp1220
Vthetvdb
p1221
I196981
sVtvrage
p1222
I26727
sVimdb
p1223
Vtt1737565
p1224
sa(dp1225
Vthetvdb
p1226
I126011
sVtvrage
p1227
I22842
sVimdb
p1228
Vtt1454730
p1229
sa(dp1230
Vthetvdb
p1231
I78958
sVtvrage
p1232
NsVimdb
p1233
Vtt0468999
p1234
sa(dp1235
Vthetvdb
p1236
I148791
sVtvrage
p1237
I20581
sVimdb
p1238
Vtt1495163
p1239
sa(dp1240
Vthetvdb
p1241
I264416
sVtvrage
p1242
I33547
sVimdb
p1243
Vtt2514488
p1244
sa(dp1245
Vthetvdb
p1246
I258549
sVtvrage
p1247
I31624
sVimdb
p1248
Vtt2390003
p1249
sa(dp1250
Vthetvdb
p1251
I296816
sVtvrage
p1252
I49484
sVimdb
p1253
Vtt4671004
p1254
sa(dp1255
Vthetvdb
p1256
I269756
sVtvrage
p1257
I34363
sVimdb
p1258
Vtt2689384
p1259
sa(dp1260
Vthetvdb
p1261
I296238
sVtvrage
p1262
NsVimdb
p1263
Vtt4662374
p1264
saFnan
aFnan
aFnan
aFnan
aFnan
aFnan
aFnan
aFnan
aFnan
aFnan
aFnan
aFnan
aFnan
aFnan
aFnan
aFnan
aFnan
a(dp1265
Vthetvdb
p1266
I160861
sVtvrage
p1267
NsVimdb
p1268
Vtt1299440
p1269
sa(dp1270
Vthetvdb
p1271
I258609
sVtvrage
p1272
I31527
sVimdb
p1273
Vtt2083701
p1274
sa(dp1275
Vthetvdb
p1276
I253525
sVtvrage
p1277
I29898
sVimdb
p1278
Vtt1933836
p1279
sa(dp1280
Vthetvdb
p1281
I304120
sVtvrage
p1282
NsVimdb
p1283
Vtt4033696
p1284
sa(dp1285
Vthetvdb
p1286
I266593
sVtvrage
p1287
NsVimdb
p1288
Vtt2170392
p1289
sa(dp1290
Vthetvdb
p1291
I293405
sVtvrage
p1292
I46334
sVimdb
p1293
Vtt4390084
p1294
sa(dp1295
Vthetvdb
p1296
NsVtvrage
p1297
NsVimdb
p1298
Vtt3174316
p1299
sa(dp1300
Vthetvdb
p1301
I258670
sVtvrage
p1302
NsVimdb
p1303
Vtt2366111
p1304
sa(dp1305
Vthetvdb
p1306
I116981
sVtvrage
p1307
NsVimdb
p1308
Vtt1495648
p1309
sa(dp1310
Vthetvdb
p1311
I140001
sVtvrage
p1312
NsVimdb
p1313
Vtt1159610
p1314
saFnan
aFnan
aFnan
aFnan
aFnan
aFnan
aFnan
aFnan
aFnan
aFnan
aFnan
aFnan
aFnan
aFnan
aFnan
aFnan
aFnan
aFnan
aFnan
aFnan
aFnan
aFnan
aFnan
aFnan
a(dp1315
Vthetvdb
p1316
NsVtvrage
p1317
NsVimdb
p1318
Vtt4123482
p1319
sa(dp1320
Vthetvdb
p1321
I109491
sVtvrage
p1322
I33546
sVimdb
p1323
Vtt1491299
p1324
sa(dp1325
Vthetvdb
p1326
I195041
sVtvrage
p1327
NsVimdb
p1328
Vtt1492090
p1329
sa(dp1330
Vthetvdb
p1331
I248843
sVtvrage
p1332
I28412
sVimdb
p1333
Vtt1826951
p1334
sa(dp1335
Vthetvdb
p1336
I273493
sVtvrage
p1337
I38006
sVimdb
p1338
Vtt2497788
p1339
sa(dp1340
Vthetvdb
p1341
I272367
sVtvrage
p1342
NsVimdb
p1343
Vtt3148194
p1344
sa(dp1345
Vthetvdb
p1346
I308243
sVtvrage
p1347
NsVimdb
p1348
Vtt5515342
p1349
sa(dp1350
Vthetvdb
p1351
I298659
sVtvrage
p1352
I49918
sVimdb
p1353
Vtt4605154
p1354
saFnan
aFnan
aFnan
aFnan
aFnan
aFnan
aFnan
aFnan
aFnan
aFnan
aFnan
aFnan
aFnan
aFnan
aFnan
aFnan
aFnan
aFnan
aFnan
aFnan
a(dp1355
Vthetvdb
p1356
I284566
sVtvrage
p1357
NsVimdb
p1358
Vtt2815342
p1359
sa(dp1360
Vthetvdb
p1361
I80311
sVtvrage
p1362
NsVimdb
p1363
Vtt0773264
p1364
sa(dp1365
Vthetvdb
p1366
I260189
sVtvrage
p1367
I32126
sVimdb
p1368
Vtt1798695
p1369
sa(dp1370
Vthetvdb
p1371
I139481
sVtvrage
p1372
I20203
sVimdb
p1373
Vtt1307083
p1374
sa(dp1375
Vthetvdb
p1376
I297960
sVtvrage
p1377
I49841
sVimdb
p1378
Vtt4845734
p1379
sa(dp1380
Vthetvdb
p1381
I70656
sVtvrage
p1382
NsVimdb
p1383
Vtt0284767
p1384
sa(dp1385
Vthetvdb
p1386
I80694
sVtvrage
p1387
I15758
sVimdb
p1388
Vtt0878801
p1389
saFnan
a(lp1390
a(lp1391
VComedy
p1392
aVMusic
p1393
aa(lp1394
a(lp1395
a(lp1396
VComedy
p1397
aVFantasy
p1398
aVMystery
p1399
aa(lp1400
a(lp1401
a(lp1402
a(lp1403
a(lp1404
a(lp1405
aFnan
a(lp1406
a(lp1407
a(lp1408
a(lp1409
VChildren
p1410
aVFamily
p1411
aa(lp1412
a(lp1413
VAdventure
p1414
aVChildren
p1415
aa(lp1416
a(lp1417
a(lp1418
VComedy
p1419
aVChildren
p1420
aa(lp1421
VComedy
p1422
aa(lp1423
a(lp1424
VFamily
p1425
aa(lp1426
a(lp1427
a(lp1428
a(lp1429
VAction
p1430
aVAdventure
p1431
aVScience-Fiction
p1432
aa(lp1433
VChildren
p1434
aa(lp1435
VComedy
p1436
aa(lp1437
VAction
p1438
aVAdventure
p1439
aVScience-Fiction
p1440
aa(lp1441
a(lp1442
a(lp1443
a(lp1444
VSupernatural
p1445
aaFnan
aFnan
aFnan
aFnan
aFnan
aFnan
aFnan
a(lp1446
a(lp1447
VDrama
p1448
aa(lp1449
VComedy
p1450
aa(lp1451
VDrama
p1452
aVAction
p1453
aVHorror
p1454
aa(lp1455
a(lp1456
aFnan
aFnan
aFnan
aFnan
aFnan
aFnan
aFnan
aFnan
aFnan
aFnan
aFnan
aFnan
aFnan
aFnan
aFnan
aFnan
aFnan
aFnan
aFnan
aFnan
aFnan
aFnan
aFnan
a(lp1457
a(lp1458
VComedy
p1459
aVAdventure
p1460
aVChildren
p1461
aa(lp1462
a(lp1463
VComedy
p1464
aa(lp1465
VDrama
p1466
aa(lp1467
a(lp1468
a(lp1469
VComedy
p1470
aa(lp1471
a(lp1472
VComedy
p1473
aa(lp1474
aFnan
aFnan
aFnan
aFnan
aFnan
aFnan
aFnan
aFnan
aFnan
aFnan
aFnan
aFnan
aFnan
aFnan
aFnan
aFnan
aFnan
aFnan
aFnan
aFnan
aFnan
a(lp1475
VDrama
p1476
aVRomance
p1477
aa(lp1478
a(lp1479
VComedy
p1480
aVFamily
p1481
aa(lp1482
VDrama
p1483
aa(lp1484
a(lp1485
a(lp1486
VFamily
p1487
aaFnan
aFnan
aFnan
aFnan
aFnan
aFnan
aFnan
aFnan
aFnan
aFnan
aFnan
aFnan
aFnan
aFnan
aFnan
aFnan
aFnan
aFnan
aFnan
aFnan
aFnan
aFnan
a(lp1488
VFamily
p1489
aVRomance
p1490
aa(lp1491
VComedy
p1492
aa(lp1493
VFamily
p1494
aa(lp1495
VComedy
p1496
aa(lp1497
a(lp1498
a(lp1499
a(lp1500
a(lp1501
a(lp1502
aFnan
aFnan
aFnan
aFnan
aFnan
aFnan
aFnan
aFnan
aFnan
aFnan
aFnan
aFnan
aFnan
aFnan
aFnan
aFnan
aFnan
a(lp1503
VAction
p1504
aVAdventure
p1505
aa(lp1506
a(lp1507
VComedy
p1508
aVAction
p1509
aVAdventure
p1510
aVFamily
p1511
aa(lp1512
VComedy
p1513
aVAction
p1514
aa(lp1515
a(lp1516
a(lp1517
VDrama
p1518
aVRomance
p1519
aa(lp1520
a(lp1521
a(lp1522
aFnan
aFnan
aFnan
aFnan
aFnan
aFnan
aFnan
aFnan
aFnan
aFnan
aFnan
aFnan
aFnan
aFnan
aFnan
aFnan
aFnan
aFnan
aFnan
aFnan
aFnan
aFnan
aFnan
aFnan
a(lp1523
VComedy
p1524
aVChildren
p1525
aa(lp1526
a(lp1527
VAction
p1528
aVAdventure
p1529
aVChildren
p1530
aa(lp1531
a(lp1532
VDrama
p1533
aVComedy
p1534
aVAction
p1535
aVAdventure
p1536
aa(lp1537
a(lp1538
VDrama
p1539
aVCrime
p1540
aa(lp1541
aFnan
aFnan
aFnan
aFnan
aFnan
aFnan
aFnan
aFnan
aFnan
aFnan
aFnan
aFnan
aFnan
aFnan
aFnan
aFnan
aFnan
aFnan
aFnan
aFnan
a(lp1542
a(lp1543
a(lp1544
VComedy
p1545
aa(lp1546
VFamily
p1547
aa(lp1548
VComedy
p1549
aVFood
p1550
aVFamily
p1551
aa(lp1552
a(lp1553
VDrama
p1554
aVComedy
p1555
aVMusic
p1556
aaFnan
aI6068
aI2821
aI15577
aI1353
aI27498
aI26839
aI10611
aI22326
aI28161
aI21642
aI24979
aFnan
aI17470
aI10031
aI20107
aI13778
aI27772
aI9653
aI15368
aI21795
aI13192
aI7503
aI18826
aI18000
aI5792
aI23399
aI16680
aI25685
aI11488
aI21327
aI22084
aI10630
aI23404
aI3989
aI27942
aFnan
aFnan
aFnan
aFnan
aFnan
aFnan
aFnan
aI27854
aI575
aI4711
aI29066
aI390
aI5493
aFnan
aFnan
aFnan
aFnan
aFnan
aFnan
aFnan
aFnan
aFnan
aFnan
aFnan
aFnan
aFnan
aFnan
aFnan
aFnan
aFnan
aFnan
aFnan
aFnan
aFnan
aFnan
aFnan
aI6048
aI6936
aI6853
aI5424
aI4815
aI24852
aI8707
aI21198
aI24229
aI9247
aI17668
aFnan
aFnan
aFnan
aFnan
aFnan
aFnan
aFnan
aFnan
aFnan
aFnan
aFnan
aFnan
aFnan
aFnan
aFnan
aFnan
aFnan
aFnan
aFnan
aFnan
aFnan
aI914
aI10674
aI12937
aI21505
aI26707
aI24110
aI6122
aFnan
aFnan
aFnan
aFnan
aFnan
aFnan
aFnan
aFnan
aFnan
aFnan
aFnan
aFnan
aFnan
aFnan
aFnan
aFnan
aFnan
aFnan
aFnan
aFnan
aFnan
aFnan
aI743
aI2098
aI4865
aI26780
aI959
aI9263
aI10016
aI2314
aI5219
aI23202
aFnan
aFnan
aFnan
aFnan
aFnan
aFnan
aFnan
aFnan
aFnan
aFnan
aFnan
aFnan
aFnan
aFnan
aFnan
aFnan
aFnan
aI5614
aI419
aI5713
aI9950
aI13904
aI2937
aI19519
aI14508
aI21526
aI19980
aFnan
aFnan
aFnan
aFnan
aFnan
aFnan
aFnan
aFnan
aFnan
aFnan
aFnan
aFnan
aFnan
aFnan
aFnan
aFnan
aFnan
aFnan
aFnan
aFnan
aFnan
aFnan
aFnan
aFnan
aI25277
aI2204
aI18511
aI4893
aI5597
aI8616
aI12029
aI2407
aFnan
aFnan
aFnan
aFnan
aFnan
aFnan
aFnan
aFnan
aFnan
aFnan
aFnan
aFnan
aFnan
aFnan
aFnan
aFnan
aFnan
aFnan
aFnan
aFnan
aI24135
aI14013
aI1138
aI969
aI2369
aI9066
aI6924
aFnan
a(dp1557
Vmedium
p1558
Vhttp://static.tvmaze.com/uploads/images/medium_portrait/23/59105.jpg
p1559
sVoriginal
p1560
Vhttp://static.tvmaze.com/uploads/images/original_untouched/23/59105.jpg
p1561
sa(dp1562
Vmedium
p1563
Vhttp://static.tvmaze.com/uploads/images/medium_portrait/15/38205.jpg
p1564
sVoriginal
p1565
Vhttp://static.tvmaze.com/uploads/images/original_untouched/15/38205.jpg
p1566
sa(dp1567
Vmedium
p1568
Vhttp://static.tvmaze.com/uploads/images/medium_portrait/52/131991.jpg
p1569
sVoriginal
p1570
Vhttp://static.tvmaze.com/uploads/images/original_untouched/52/131991.jpg
p1571
sa(dp1572
Vmedium
p1573
Vhttp://static.tvmaze.com/uploads/images/medium_portrait/7/18661.jpg
p1574
sVoriginal
p1575
Vhttp://static.tvmaze.com/uploads/images/original_untouched/7/18661.jpg
p1576
sa(dp1577
Vmedium
p1578
Vhttp://static.tvmaze.com/uploads/images/medium_portrait/108/271343.jpg
p1579
sVoriginal
p1580
Vhttp://static.tvmaze.com/uploads/images/original_untouched/108/271343.jpg
p1581
sa(dp1582
Vmedium
p1583
Vhttp://static.tvmaze.com/uploads/images/medium_portrait/105/264161.jpg
p1584
sVoriginal
p1585
Vhttp://static.tvmaze.com/uploads/images/original_untouched/105/264161.jpg
p1586
sa(dp1587
Vmedium
p1588
Vhttp://static.tvmaze.com/uploads/images/medium_portrait/35/89300.jpg
p1589
sVoriginal
p1590
Vhttp://static.tvmaze.com/uploads/images/original_untouched/35/89300.jpg
p1591
saNa(dp1592
Vmedium
p1593
Vhttp://static.tvmaze.com/uploads/images/medium_portrait/111/278854.jpg
p1594
sVoriginal
p1595
Vhttp://static.tvmaze.com/uploads/images/original_untouched/111/278854.jpg
p1596
sa(dp1597
Vmedium
p1598
Vhttp://static.tvmaze.com/uploads/images/medium_portrait/77/193853.jpg
p1599
sVoriginal
p1600
Vhttp://static.tvmaze.com/uploads/images/original_untouched/77/193853.jpg
p1601
sa(dp1602
Vmedium
p1603
Vhttp://static.tvmaze.com/uploads/images/medium_portrait/96/240650.jpg
p1604
sVoriginal
p1605
Vhttp://static.tvmaze.com/uploads/images/original_untouched/96/240650.jpg
p1606
saFnan
a(dp1607
Vmedium
p1608
Vhttp://static.tvmaze.com/uploads/images/medium_portrait/58/147357.jpg
p1609
sVoriginal
p1610
Vhttp://static.tvmaze.com/uploads/images/original_untouched/58/147357.jpg
p1611
sa(dp1612
Vmedium
p1613
Vhttp://static.tvmaze.com/uploads/images/medium_portrait/34/85770.jpg
p1614
sVoriginal
p1615
Vhttp://static.tvmaze.com/uploads/images/original_untouched/34/85770.jpg
p1616
saNa(dp1617
Vmedium
p1618
Vhttp://static.tvmaze.com/uploads/images/medium_portrait/47/118580.jpg
p1619
sVoriginal
p1620
Vhttp://static.tvmaze.com/uploads/images/original_untouched/47/118580.jpg
p1621
sa(dp1622
Vmedium
p1623
Vhttp://static.tvmaze.com/uploads/images/medium_portrait/110/275399.jpg
p1624
sVoriginal
p1625
Vhttp://static.tvmaze.com/uploads/images/original_untouched/110/275399.jpg
p1626
sa(dp1627
Vmedium
p1628
Vhttp://static.tvmaze.com/uploads/images/medium_portrait/33/83927.jpg
p1629
sVoriginal
p1630
Vhttp://static.tvmaze.com/uploads/images/original_untouched/33/83927.jpg
p1631
sa(dp1632
Vmedium
p1633
Vhttp://static.tvmaze.com/uploads/images/medium_portrait/52/130564.jpg
p1634
sVoriginal
p1635
Vhttp://static.tvmaze.com/uploads/images/original_untouched/52/130564.jpg
p1636
sa(dp1637
Vmedium
p1638
Vhttp://static.tvmaze.com/uploads/images/medium_portrait/78/196374.jpg
p1639
sVoriginal
p1640
Vhttp://static.tvmaze.com/uploads/images/original_untouched/78/196374.jpg
p1641
sa(dp1642
Vmedium
p1643
Vhttp://static.tvmaze.com/uploads/images/medium_portrait/45/113626.jpg
p1644
sVoriginal
p1645
Vhttp://static.tvmaze.com/uploads/images/original_untouched/45/113626.jpg
p1646
sa(dp1647
Vmedium
p1648
Vhttp://static.tvmaze.com/uploads/images/medium_portrait/27/69136.jpg
p1649
sVoriginal
p1650
Vhttp://static.tvmaze.com/uploads/images/original_untouched/27/69136.jpg
p1651
sa(dp1652
Vmedium
p1653
Vhttp://static.tvmaze.com/uploads/images/medium_portrait/65/162728.jpg
p1654
sVoriginal
p1655
Vhttp://static.tvmaze.com/uploads/images/original_untouched/65/162728.jpg
p1656
sa(dp1657
Vmedium
p1658
Vhttp://static.tvmaze.com/uploads/images/medium_portrait/61/152590.jpg
p1659
sVoriginal
p1660
Vhttp://static.tvmaze.com/uploads/images/original_untouched/61/152590.jpg
p1661
sa(dp1662
Vmedium
p1663
Vhttp://static.tvmaze.com/uploads/images/medium_portrait/23/57822.jpg
p1664
sVoriginal
p1665
Vhttp://static.tvmaze.com/uploads/images/original_untouched/23/57822.jpg
p1666
sa(dp1667
Vmedium
p1668
Vhttp://static.tvmaze.com/uploads/images/medium_portrait/87/219800.jpg
p1669
sVoriginal
p1670
Vhttp://static.tvmaze.com/uploads/images/original_untouched/87/219800.jpg
p1671
sa(dp1672
Vmedium
p1673
Vhttp://static.tvmaze.com/uploads/images/medium_portrait/55/139168.jpg
p1674
sVoriginal
p1675
Vhttp://static.tvmaze.com/uploads/images/original_untouched/55/139168.jpg
p1676
sa(dp1677
Vmedium
p1678
Vhttp://static.tvmaze.com/uploads/images/medium_portrait/100/250438.jpg
p1679
sVoriginal
p1680
Vhttp://static.tvmaze.com/uploads/images/original_untouched/100/250438.jpg
p1681
sa(dp1682
Vmedium
p1683
Vhttp://static.tvmaze.com/uploads/images/medium_portrait/38/96749.jpg
p1684
sVoriginal
p1685
Vhttp://static.tvmaze.com/uploads/images/original_untouched/38/96749.jpg
p1686
saNa(dp1687
Vmedium
p1688
Vhttp://static.tvmaze.com/uploads/images/medium_portrait/80/201155.jpg
p1689
sVoriginal
p1690
Vhttp://static.tvmaze.com/uploads/images/original_untouched/80/201155.jpg
p1691
sa(dp1692
Vmedium
p1693
Vhttp://static.tvmaze.com/uploads/images/medium_portrait/35/89655.jpg
p1694
sVoriginal
p1695
Vhttp://static.tvmaze.com/uploads/images/original_untouched/35/89655.jpg
p1696
sa(dp1697
Vmedium
p1698
Vhttp://static.tvmaze.com/uploads/images/medium_portrait/87/219815.jpg
p1699
sVoriginal
p1700
Vhttp://static.tvmaze.com/uploads/images/original_untouched/87/219815.jpg
p1701
sa(dp1702
Vmedium
p1703
Vhttp://static.tvmaze.com/uploads/images/medium_portrait/55/137507.jpg
p1704
sVoriginal
p1705
Vhttp://static.tvmaze.com/uploads/images/original_untouched/55/137507.jpg
p1706
sa(dp1707
Vmedium
p1708
Vhttp://static.tvmaze.com/uploads/images/medium_portrait/110/276599.jpg
p1709
sVoriginal
p1710
Vhttp://static.tvmaze.com/uploads/images/original_untouched/110/276599.jpg
p1711
saFnan
aFnan
aFnan
aFnan
aFnan
aFnan
aFnan
a(dp1712
Vmedium
p1713
Vhttp://static.tvmaze.com/uploads/images/medium_portrait/110/275730.jpg
p1714
sVoriginal
p1715
Vhttp://static.tvmaze.com/uploads/images/original_untouched/110/275730.jpg
p1716
sa(dp1717
Vmedium
p1718
Vhttp://static.tvmaze.com/uploads/images/medium_portrait/112/280330.jpg
p1719
sVoriginal
p1720
Vhttp://static.tvmaze.com/uploads/images/original_untouched/112/280330.jpg
p1721
sa(dp1722
Vmedium
p1723
Vhttp://static.tvmaze.com/uploads/images/medium_portrait/21/52969.jpg
p1724
sVoriginal
p1725
Vhttp://static.tvmaze.com/uploads/images/original_untouched/21/52969.jpg
p1726
sa(dp1727
Vmedium
p1728
Vhttp://static.tvmaze.com/uploads/images/medium_portrait/115/289592.jpg
p1729
sVoriginal
p1730
Vhttp://static.tvmaze.com/uploads/images/original_untouched/115/289592.jpg
p1731
sa(dp1732
Vmedium
p1733
Vhttp://static.tvmaze.com/uploads/images/medium_portrait/2/5774.jpg
p1734
sVoriginal
p1735
Vhttp://static.tvmaze.com/uploads/images/original_untouched/2/5774.jpg
p1736
sa(dp1737
Vmedium
p1738
Vhttp://static.tvmaze.com/uploads/images/medium_portrait/22/55928.jpg
p1739
sVoriginal
p1740
Vhttp://static.tvmaze.com/uploads/images/original_untouched/22/55928.jpg
p1741
saFnan
aFnan
aFnan
aFnan
aFnan
aFnan
aFnan
aFnan
aFnan
aFnan
aFnan
aFnan
aFnan
aFnan
aFnan
aFnan
aFnan
aFnan
aFnan
aFnan
aFnan
aFnan
aFnan
a(dp1742
Vmedium
p1743
Vhttp://static.tvmaze.com/uploads/images/medium_portrait/52/130765.jpg
p1744
sVoriginal
p1745
Vhttp://static.tvmaze.com/uploads/images/original_untouched/52/130765.jpg
p1746
sa(dp1747
Vmedium
p1748
Vhttp://static.tvmaze.com/uploads/images/medium_portrait/82/206498.jpg
p1749
sVoriginal
p1750
Vhttp://static.tvmaze.com/uploads/images/original_untouched/82/206498.jpg
p1751
sa(dp1752
Vmedium
p1753
Vhttp://static.tvmaze.com/uploads/images/medium_portrait/39/97649.jpg
p1754
sVoriginal
p1755
Vhttp://static.tvmaze.com/uploads/images/original_untouched/39/97649.jpg
p1756
sa(dp1757
Vmedium
p1758
Vhttp://static.tvmaze.com/uploads/images/medium_portrait/22/55659.jpg
p1759
sVoriginal
p1760
Vhttp://static.tvmaze.com/uploads/images/original_untouched/22/55659.jpg
p1761
sa(dp1762
Vmedium
p1763
Vhttp://static.tvmaze.com/uploads/images/medium_portrait/21/53281.jpg
p1764
sVoriginal
p1765
Vhttp://static.tvmaze.com/uploads/images/original_untouched/21/53281.jpg
p1766
sa(dp1767
Vmedium
p1768
Vhttp://static.tvmaze.com/uploads/images/medium_portrait/95/239149.jpg
p1769
sVoriginal
p1770
Vhttp://static.tvmaze.com/uploads/images/original_untouched/95/239149.jpg
p1771
sa(dp1772
Vmedium
p1773
Vhttp://static.tvmaze.com/uploads/images/medium_portrait/89/223701.jpg
p1774
sVoriginal
p1775
Vhttp://static.tvmaze.com/uploads/images/original_untouched/89/223701.jpg
p1776
sa(dp1777
Vmedium
p1778
Vhttp://static.tvmaze.com/uploads/images/medium_portrait/74/186990.jpg
p1779
sVoriginal
p1780
Vhttp://static.tvmaze.com/uploads/images/original_untouched/74/186990.jpg
p1781
sa(dp1782
Vmedium
p1783
Vhttp://static.tvmaze.com/uploads/images/medium_portrait/92/230285.jpg
p1784
sVoriginal
p1785
Vhttp://static.tvmaze.com/uploads/images/original_untouched/92/230285.jpg
p1786
sa(dp1787
Vmedium
p1788
Vhttp://static.tvmaze.com/uploads/images/medium_portrait/32/81445.jpg
p1789
sVoriginal
p1790
Vhttp://static.tvmaze.com/uploads/images/original_untouched/32/81445.jpg
p1791
saNaFnan
aFnan
aFnan
aFnan
aFnan
aFnan
aFnan
aFnan
aFnan
aFnan
aFnan
aFnan
aFnan
aFnan
aFnan
aFnan
aFnan
aFnan
aFnan
aFnan
aFnan
a(dp1792
Vmedium
p1793
Vhttp://static.tvmaze.com/uploads/images/medium_portrait/40/101686.jpg
p1794
sVoriginal
p1795
Vhttp://static.tvmaze.com/uploads/images/original_untouched/40/101686.jpg
p1796
sa(dp1797
Vmedium
p1798
Vhttp://static.tvmaze.com/uploads/images/medium_portrait/36/90119.jpg
p1799
sVoriginal
p1800
Vhttp://static.tvmaze.com/uploads/images/original_untouched/36/90119.jpg
p1801
sa(dp1802
Vmedium
p1803
Vhttp://static.tvmaze.com/uploads/images/medium_portrait/62/155460.jpg
p1804
sVoriginal
p1805
Vhttp://static.tvmaze.com/uploads/images/original_untouched/62/155460.jpg
p1806
sa(dp1807
Vmedium
p1808
Vhttp://static.tvmaze.com/uploads/images/medium_portrait/76/191519.jpg
p1809
sVoriginal
p1810
Vhttp://static.tvmaze.com/uploads/images/original_untouched/76/191519.jpg
p1811
sa(dp1812
Vmedium
p1813
Vhttp://static.tvmaze.com/uploads/images/medium_portrait/105/262915.jpg
p1814
sVoriginal
p1815
Vhttp://static.tvmaze.com/uploads/images/original_untouched/105/262915.jpg
p1816
sa(dp1817
Vmedium
p1818
Vhttp://static.tvmaze.com/uploads/images/medium_portrait/91/228374.jpg
p1819
sVoriginal
p1820
Vhttp://static.tvmaze.com/uploads/images/original_untouched/91/228374.jpg
p1821
sa(dp1822
Vmedium
p1823
Vhttp://static.tvmaze.com/uploads/images/medium_portrait/23/59396.jpg
p1824
sVoriginal
p1825
Vhttp://static.tvmaze.com/uploads/images/original_untouched/23/59396.jpg
p1826
saFnan
aFnan
aFnan
aFnan
aFnan
aFnan
aFnan
aFnan
aFnan
aFnan
aFnan
aFnan
aFnan
aFnan
aFnan
aFnan
aFnan
aFnan
aFnan
aFnan
aFnan
aFnan
a(dp1827
Vmedium
p1828
Vhttp://static.tvmaze.com/uploads/images/medium_portrait/58/146174.jpg
p1829
sVoriginal
p1830
Vhttp://static.tvmaze.com/uploads/images/original_untouched/58/146174.jpg
p1831
sa(dp1832
Vmedium
p1833
Vhttp://static.tvmaze.com/uploads/images/medium_portrait/11/29110.jpg
p1834
sVoriginal
p1835
Vhttp://static.tvmaze.com/uploads/images/original_untouched/11/29110.jpg
p1836
sa(dp1837
Vmedium
p1838
Vhttp://static.tvmaze.com/uploads/images/medium_portrait/21/53380.jpg
p1839
sVoriginal
p1840
Vhttp://static.tvmaze.com/uploads/images/original_untouched/21/53380.jpg
p1841
sa(dp1842
Vmedium
p1843
Vhttp://static.tvmaze.com/uploads/images/medium_portrait/105/263531.jpg
p1844
sVoriginal
p1845
Vhttp://static.tvmaze.com/uploads/images/original_untouched/105/263531.jpg
p1846
sa(dp1847
Vmedium
p1848
Vhttp://static.tvmaze.com/uploads/images/medium_portrait/6/16321.jpg
p1849
sVoriginal
p1850
Vhttp://static.tvmaze.com/uploads/images/original_untouched/6/16321.jpg
p1851
sa(dp1852
Vmedium
p1853
Vhttp://static.tvmaze.com/uploads/images/medium_portrait/32/81567.jpg
p1854
sVoriginal
p1855
Vhttp://static.tvmaze.com/uploads/images/original_untouched/32/81567.jpg
p1856
sa(dp1857
Vmedium
p1858
Vhttp://static.tvmaze.com/uploads/images/medium_portrait/34/85693.jpg
p1859
sVoriginal
p1860
Vhttp://static.tvmaze.com/uploads/images/original_untouched/34/85693.jpg
p1861
sa(dp1862
Vmedium
p1863
Vhttp://static.tvmaze.com/uploads/images/medium_portrait/12/31868.jpg
p1864
sVoriginal
p1865
Vhttp://static.tvmaze.com/uploads/images/original_untouched/12/31868.jpg
p1866
sa(dp1867
Vmedium
p1868
Vhttp://static.tvmaze.com/uploads/images/medium_portrait/21/54721.jpg
p1869
sVoriginal
p1870
Vhttp://static.tvmaze.com/uploads/images/original_untouched/21/54721.jpg
p1871
sa(dp1872
Vmedium
p1873
Vhttp://static.tvmaze.com/uploads/images/medium_portrait/86/217298.jpg
p1874
sVoriginal
p1875
Vhttp://static.tvmaze.com/uploads/images/original_untouched/86/217298.jpg
p1876
saFnan
aFnan
aFnan
aFnan
aFnan
aFnan
aFnan
aFnan
aFnan
aFnan
aFnan
aFnan
aFnan
aFnan
aFnan
aFnan
aFnan
a(dp1877
Vmedium
p1878
Vhttp://static.tvmaze.com/uploads/images/medium_portrait/22/56666.jpg
p1879
sVoriginal
p1880
Vhttp://static.tvmaze.com/uploads/images/original_untouched/22/56666.jpg
p1881
sa(dp1882
Vmedium
p1883
Vhttp://static.tvmaze.com/uploads/images/medium_portrait/2/6872.jpg
p1884
sVoriginal
p1885
Vhttp://static.tvmaze.com/uploads/images/original_untouched/2/6872.jpg
p1886
sa(dp1887
Vmedium
p1888
Vhttp://static.tvmaze.com/uploads/images/medium_portrait/22/57106.jpg
p1889
sVoriginal
p1890
Vhttp://static.tvmaze.com/uploads/images/original_untouched/22/57106.jpg
p1891
sa(dp1892
Vmedium
p1893
Vhttp://static.tvmaze.com/uploads/images/medium_portrait/35/89423.jpg
p1894
sVoriginal
p1895
Vhttp://static.tvmaze.com/uploads/images/original_untouched/35/89423.jpg
p1896
sa(dp1897
Vmedium
p1898
Vhttp://static.tvmaze.com/uploads/images/medium_portrait/47/119475.jpg
p1899
sVoriginal
p1900
Vhttp://static.tvmaze.com/uploads/images/original_untouched/47/119475.jpg
p1901
sa(dp1902
Vmedium
p1903
Vhttp://static.tvmaze.com/uploads/images/medium_portrait/16/40176.jpg
p1904
sVoriginal
p1905
Vhttp://static.tvmaze.com/uploads/images/original_untouched/16/40176.jpg
p1906
sa(dp1907
Vmedium
p1908
Vhttp://static.tvmaze.com/uploads/images/medium_portrait/68/171973.jpg
p1909
sVoriginal
p1910
Vhttp://static.tvmaze.com/uploads/images/original_untouched/68/171973.jpg
p1911
sa(dp1912
Vmedium
p1913
Vhttp://static.tvmaze.com/uploads/images/medium_portrait/49/122829.jpg
p1914
sVoriginal
p1915
Vhttp://static.tvmaze.com/uploads/images/original_untouched/49/122829.jpg
p1916
sa(dp1917
Vmedium
p1918
Vhttp://static.tvmaze.com/uploads/images/medium_portrait/76/191939.jpg
p1919
sVoriginal
p1920
Vhttp://static.tvmaze.com/uploads/images/original_untouched/76/191939.jpg
p1921
sa(dp1922
Vmedium
p1923
Vhttp://static.tvmaze.com/uploads/images/medium_portrait/70/177083.jpg
p1924
sVoriginal
p1925
Vhttp://static.tvmaze.com/uploads/images/original_untouched/70/177083.jpg
p1926
saFnan
aFnan
aFnan
aFnan
aFnan
aFnan
aFnan
aFnan
aFnan
aFnan
aFnan
aFnan
aFnan
aFnan
aFnan
aFnan
aFnan
aFnan
aFnan
aFnan
aFnan
aFnan
aFnan
aFnan
a(dp1927
Vmedium
p1928
Vhttp://static.tvmaze.com/uploads/images/medium_portrait/98/245431.jpg
p1929
sVoriginal
p1930
Vhttp://static.tvmaze.com/uploads/images/original_untouched/98/245431.jpg
p1931
sa(dp1932
Vmedium
p1933
Vhttp://static.tvmaze.com/uploads/images/medium_portrait/12/30554.jpg
p1934
sVoriginal
p1935
Vhttp://static.tvmaze.com/uploads/images/original_untouched/12/30554.jpg
p1936
sa(dp1937
Vmedium
p1938
Vhttp://static.tvmaze.com/uploads/images/medium_portrait/63/157970.jpg
p1939
sVoriginal
p1940
Vhttp://static.tvmaze.com/uploads/images/original_untouched/63/157970.jpg
p1941
sa(dp1942
Vmedium
p1943
Vhttp://static.tvmaze.com/uploads/images/medium_portrait/21/53533.jpg
p1944
sVoriginal
p1945
Vhttp://static.tvmaze.com/uploads/images/original_untouched/21/53533.jpg
p1946
sa(dp1947
Vmedium
p1948
Vhttp://static.tvmaze.com/uploads/images/medium_portrait/22/56600.jpg
p1949
sVoriginal
p1950
Vhttp://static.tvmaze.com/uploads/images/original_untouched/22/56600.jpg
p1951
sa(dp1952
Vmedium
p1953
Vhttp://static.tvmaze.com/uploads/images/medium_portrait/30/76739.jpg
p1954
sVoriginal
p1955
Vhttp://static.tvmaze.com/uploads/images/original_untouched/30/76739.jpg
p1956
sa(dp1957
Vmedium
p1958
Vhttp://static.tvmaze.com/uploads/images/medium_portrait/47/118513.jpg
p1959
sVoriginal
p1960
Vhttp://static.tvmaze.com/uploads/images/original_untouched/47/118513.jpg
p1961
sa(dp1962
Vmedium
p1963
Vhttp://static.tvmaze.com/uploads/images/medium_portrait/52/132395.jpg
p1964
sVoriginal
p1965
Vhttp://static.tvmaze.com/uploads/images/original_untouched/52/132395.jpg
p1966
saFnan
aFnan
aFnan
aFnan
aFnan
aFnan
aFnan
aFnan
aFnan
aFnan
aFnan
aFnan
aFnan
aFnan
aFnan
aFnan
aFnan
aFnan
aFnan
aFnan
a(dp1967
Vmedium
p1968
Vhttp://static.tvmaze.com/uploads/images/medium_portrait/91/228708.jpg
p1969
sVoriginal
p1970
Vhttp://static.tvmaze.com/uploads/images/original_untouched/91/228708.jpg
p1971
sa(dp1972
Vmedium
p1973
Vhttp://static.tvmaze.com/uploads/images/medium_portrait/48/120005.jpg
p1974
sVoriginal
p1975
Vhttp://static.tvmaze.com/uploads/images/original_untouched/48/120005.jpg
p1976
sa(dp1977
Vmedium
p1978
Vhttp://static.tvmaze.com/uploads/images/medium_portrait/6/17317.jpg
p1979
sVoriginal
p1980
Vhttp://static.tvmaze.com/uploads/images/original_untouched/6/17317.jpg
p1981
sa(dp1982
Vmedium
p1983
Vhttp://static.tvmaze.com/uploads/images/medium_portrait/6/16436.jpg
p1984
sVoriginal
p1985
Vhttp://static.tvmaze.com/uploads/images/original_untouched/6/16436.jpg
p1986
sa(dp1987
Vmedium
p1988
Vhttp://static.tvmaze.com/uploads/images/medium_portrait/14/35831.jpg
p1989
sVoriginal
p1990
Vhttp://static.tvmaze.com/uploads/images/original_untouched/14/35831.jpg
p1991
sa(dp1992
Vmedium
p1993
Vhttp://static.tvmaze.com/uploads/images/medium_portrait/32/80183.jpg
p1994
sVoriginal
p1995
Vhttp://static.tvmaze.com/uploads/images/original_untouched/32/80183.jpg
p1996
sa(dp1997
Vmedium
p1998
Vhttp://static.tvmaze.com/uploads/images/medium_portrait/26/65163.jpg
p1999
sVoriginal
p2000
Vhttp://static.tvmaze.com/uploads/images/original_untouched/26/65163.jpg
p2001
saFnan
aVEnglish
p2002
aVEnglish
p2003
aVEnglish
p2004
aVEnglish
p2005
aVEnglish
p2006
aVEnglish
p2007
aVEnglish
p2008
aVEnglish
p2009
aVEnglish
p2010
aVEnglish
p2011
aVEnglish
p2012
aFnan
aVEnglish
p2013
aVEnglish
p2014
aVEnglish
p2015
aVEnglish
p2016
aVEnglish
p2017
aVEnglish
p2018
aVEnglish
p2019
aVEnglish
p2020
aVEnglish
p2021
aVEnglish
p2022
aVEnglish
p2023
aVEnglish
p2024
aVEnglish
p2025
aVEnglish
p2026
aVEnglish
p2027
aVEnglish
p2028
aVKorean
p2029
aVEnglish
p2030
aVEnglish
p2031
aVEnglish
p2032
aVEnglish
p2033
aVEnglish
p2034
aVEnglish
p2035
aFnan
aFnan
aFnan
aFnan
aFnan
aFnan
aFnan
aVEnglish
p2036
aVEnglish
p2037
aVEnglish
p2038
aVEnglish
p2039
aVEnglish
p2040
aVEnglish
p2041
aFnan
aFnan
aFnan
aFnan
aFnan
aFnan
aFnan
aFnan
aFnan
aFnan
aFnan
aFnan
aFnan
aFnan
aFnan
aFnan
aFnan
aFnan
aFnan
aFnan
aFnan
aFnan
aFnan
aVEnglish
p2042
aVEnglish
p2043
aVEnglish
p2044
aVEnglish
p2045
aVEnglish
p2046
aVEnglish
p2047
aVEnglish
p2048
aVEnglish
p2049
aVEnglish
p2050
aVEnglish
p2051
aVEnglish
p2052
aFnan
aFnan
aFnan
aFnan
aFnan
aFnan
aFnan
aFnan
aFnan
aFnan
aFnan
aFnan
aFnan
aFnan
aFnan
aFnan
aFnan
aFnan
aFnan
aFnan
aFnan
aVEnglish
p2053
aVEnglish
p2054
aVEnglish
p2055
aVEnglish
p2056
aVEnglish
p2057
aVEnglish
p2058
aVEnglish
p2059
aFnan
aFnan
aFnan
aFnan
aFnan
aFnan
aFnan
aFnan
aFnan
aFnan
aFnan
aFnan
aFnan
aFnan
aFnan
aFnan
aFnan
aFnan
aFnan
aFnan
aFnan
aFnan
aVEnglish
p2060
aVEnglish
p2061
aVEnglish
p2062
aVEnglish
p2063
aVEnglish
p2064
aVEnglish
p2065
aVEnglish
p2066
aVEnglish
p2067
aVEnglish
p2068
aVEnglish
p2069
aFnan
aFnan
aFnan
aFnan
aFnan
aFnan
aFnan
aFnan
aFnan
aFnan
aFnan
aFnan
aFnan
aFnan
aFnan
aFnan
aFnan
aVEnglish
p2070
aVEnglish
p2071
aVEnglish
p2072
aVEnglish
p2073
aVEnglish
p2074
aVEnglish
p2075
aVEnglish
p2076
aVEnglish
p2077
aVEnglish
p2078
aVEnglish
p2079
aFnan
aFnan
aFnan
aFnan
aFnan
aFnan
aFnan
aFnan
aFnan
aFnan
aFnan
aFnan
aFnan
aFnan
aFnan
aFnan
aFnan
aFnan
aFnan
aFnan
aFnan
aFnan
aFnan
aFnan
aVEnglish
p2080
aVEnglish
p2081
aVEnglish
p2082
aVEnglish
p2083
aVEnglish
p2084
aVEnglish
p2085
aVEnglish
p2086
aVEnglish
p2087
aFnan
aFnan
aFnan
aFnan
aFnan
aFnan
aFnan
aFnan
aFnan
aFnan
aFnan
aFnan
aFnan
aFnan
aFnan
aFnan
aFnan
aFnan
aFnan
aFnan
aVEnglish
p2088
aVEnglish
p2089
aVEnglish
p2090
aVEnglish
p2091
aVEnglish
p2092
aVEnglish
p2093
aVEnglish
p2094
aFnan
atp2095
bag19
(g20
(I0
tp2096
g22
tp2097
Rp2098
(I1
(I2
I229
tp2099
g29
I00
(lp2100
Fnan
aFnan
aFnan
aFnan
aFnan
aFnan
aFnan
aFnan
aFnan
aFnan
aFnan
aVPlease take it easy
p2101
aFnan
aFnan
aFnan
aFnan
aFnan
aFnan
aFnan
aFnan
aFnan
aFnan
aFnan
aFnan
aFnan
aFnan
aFnan
aFnan
aFnan
aFnan
aFnan
aFnan
aFnan
aFnan
aFnan
aVPlease take it easy
p2102
aVPlease take it easy
p2103
aVPlease take it easy
p2104
aVPlease take it easy
p2105
aVPlease take it easy
p2106
aVPlease take it easy
p2107
aVPlease take it easy
p2108
aFnan
aFnan
aFnan
aFnan
aFnan
aFnan
aVPlease take it easy
p2109
aVPlease take it easy
p2110
aVPlease take it easy
p2111
aVPlease take it easy
p2112
aVPlease take it easy
p2113
aVPlease take it easy
p2114
aVPlease take it easy
p2115
aVPlease take it easy
p2116
aVPlease take it easy
p2117
aVPlease take it easy
p2118
aVPlease take it easy
p2119
aVPlease take it easy
p2120
aVPlease take it easy
p2121
aVPlease take it easy
p2122
aVPlease take it easy
p2123
aVPlease take it easy
p2124
aVPlease take it easy
p2125
aVPlease take it easy
p2126
aVPlease take it easy
p2127
aVPlease take it easy
p2128
aVPlease take it easy
p2129
aVPlease take it easy
p2130
aVPlease take it easy
p2131
aFnan
aFnan
aFnan
aFnan
aFnan
aFnan
aFnan
aFnan
aFnan
aFnan
aFnan
aVPlease take it easy
p2132
aVPlease take it easy
p2133
aVPlease take it easy
p2134
aVPlease take it easy
p2135
aVPlease take it easy
p2136
aVPlease take it easy
p2137
aVPlease take it easy
p2138
aVPlease take it easy
p2139
aVPlease take it easy
p2140
aVPlease take it easy
p2141
aVPlease take it easy
p2142
aVPlease take it easy
p2143
aVPlease take it easy
p2144
aVPlease take it easy
p2145
aVPlease take it easy
p2146
aVPlease take it easy
p2147
aVPlease take it easy
p2148
aVPlease take it easy
p2149
aVPlease take it easy
p2150
aVPlease take it easy
p2151
aVPlease take it easy
p2152
aFnan
aFnan
aFnan
aFnan
aFnan
aFnan
aFnan
aVPlease take it easy
p2153
aVPlease take it easy
p2154
aVPlease take it easy
p2155
aVPlease take it easy
p2156
aVPlease take it easy
p2157
aVPlease take it easy
p2158
aVPlease take it easy
p2159
aVPlease take it easy
p2160
aVPlease take it easy
p2161
aVPlease take it easy
p2162
aVPlease take it easy
p2163
aVPlease take it easy
p2164
aVPlease take it easy
p2165
aVPlease take it easy
p2166
aVPlease take it easy
p2167
aVPlease take it easy
p2168
aVPlease take it easy
p2169
aVPlease take it easy
p2170
aVPlease take it easy
p2171
aVPlease take it easy
p2172
aVPlease take it easy
p2173
aVPlease take it easy
p2174
aFnan
aFnan
aFnan
aFnan
aFnan
aFnan
aFnan
aFnan
aFnan
aFnan
aVPlease take it easy
p2175
aVPlease take it easy
p2176
aVPlease take it easy
p2177
aVPlease take it easy
p2178
aVPlease take it easy
p2179
aVPlease take it easy
p2180
aVPlease take it easy
p2181
aVPlease take it easy
p2182
aVPlease take it easy
p2183
aVPlease take it easy
p2184
aVPlease take it easy
p2185
aVPlease take it easy
p2186
aVPlease take it easy
p2187
aVPlease take it easy
p2188
aVPlease take it easy
p2189
aVPlease take it easy
p2190
aVPlease take it easy
p2191
aFnan
aFnan
aFnan
aFnan
aFnan
aFnan
aFnan
aFnan
aFnan
aFnan
aVPlease take it easy
p2192
aVPlease take it easy
p2193
aVPlease take it easy
p2194
aVPlease take it easy
p2195
aVPlease take it easy
p2196
aVPlease take it easy
p2197
aVPlease take it easy
p2198
aVPlease take it easy
p2199
aVPlease take it easy
p2200
aVPlease take it easy
p2201
aVPlease take it easy
p2202
aVPlease take it easy
p2203
aVPlease take it easy
p2204
aVPlease take it easy
p2205
aVPlease take it easy
p2206
aVPlease take it easy
p2207
aVPlease take it easy
p2208
aVPlease take it easy
p2209
aVPlease take it easy
p2210
aVPlease take it easy
p2211
aVPlease take it easy
p2212
aVPlease take it easy
p2213
aVPlease take it easy
p2214
aVPlease take it easy
p2215
aFnan
aFnan
aFnan
aFnan
aFnan
aFnan
aFnan
aFnan
aVPlease take it easy
p2216
aVPlease take it easy
p2217
aVPlease take it easy
p2218
aVPlease take it easy
p2219
aVPlease take it easy
p2220
aVPlease take it easy
p2221
aVPlease take it easy
p2222
aVPlease take it easy
p2223
aVPlease take it easy
p2224
aVPlease take it easy
p2225
aVPlease take it easy
p2226
aVPlease take it easy
p2227
aVPlease take it easy
p2228
aVPlease take it easy
p2229
aVPlease take it easy
p2230
aVPlease take it easy
p2231
aVPlease take it easy
p2232
aVPlease take it easy
p2233
aVPlease take it easy
p2234
aVPlease take it easy
p2235
aFnan
aFnan
aFnan
aFnan
aFnan
aFnan
aFnan
aVPlease take it easy
p2236
aVThe Bill Cunningham Show
p2237
aVSix Degrees of Everything
p2238
aVToddlers & Tiaras
p2239
aVWild Grinders
p2240
aVThe Problem Solverz
p2241
aVMy Super Sweet 16
p2242
aVBristol Palin: Life's a Tripp
p2243
aVThe Adventures of Paddy the Pelican
p2244
aVThe Nutshack
p2245
aVThe World According to Paris
p2246
aVCelebrity Splash!
p2247
aVToo Many Requests
p2248
aVA Current Affair
p2249
aVAlmost Genius
p2250
aVReact: Do They Know It?
p2251
aVOutrageous Kid Parties
p2252
aVThe Fox News Specialists
p2253
aVThe High Fructose Adventures of Annoying Orange
p2254
aVThe Real Housewives of D.C.
p2255
aVH8R
p2256
aVAwesomenessTV
p2257
aVSingle White Spenny
p2258
aVLiving Lohan
p2259
aVLittle Miss Perfect
p2260
aVHere Comes Honey Boo Boo
p2261
aVHigh Society
p2262
aVThe Swan
p2263
aVMonster Warriors
p2264
aVTickety Toc
p2265
aVAnchorwoman
p2266
aVBen 10
p2267
aVCasper's Scare School
p2268
aVSouthern Fried Stings
p2269
aVFashionably Late with Rachel Zoe
p2270
aVKiller Contact
p2271
aVToo Many Requests
p2272
aVToo Many Requests
p2273
aVToo Many Requests
p2274
aVToo Many Requests
p2275
aVToo Many Requests
p2276
aVToo Many Requests
p2277
aVToo Many Requests
p2278
aVBeing Lara Bingle
p2279
aVKeeping Up with the Kardashians
p2280
aVI Live with Models
p2281
aVThe Z Virus
p2282
aVLast Call with Carson Daly
p2283
aVThe Real Housewives of Miami
p2284
aVToo Many Requests
p2285
aVToo Many Requests
p2286
aVToo Many Requests
p2287
aVToo Many Requests
p2288
aVToo Many Requests
p2289
aVToo Many Requests
p2290
aVToo Many Requests
p2291
aVToo Many Requests
p2292
aVToo Many Requests
p2293
aVToo Many Requests
p2294
aVToo Many Requests
p2295
aVToo Many Requests
p2296
aVToo Many Requests
p2297
aVToo Many Requests
p2298
aVToo Many Requests
p2299
aVToo Many Requests
p2300
aVToo Many Requests
p2301
aVToo Many Requests
p2302
aVToo Many Requests
p2303
aVToo Many Requests
p2304
aVToo Many Requests
p2305
aVToo Many Requests
p2306
aVToo Many Requests
p2307
aVThe View
p2308
aVBreadwinners
p2309
aVKocktails with Khlo
p2310
aVHorne and Corden
p2311
aVBrooke Knows Best
p2312
aVPregnant & Dating
p2313
aVBromance
p2314
aVHowie Do It
p2315
aVBAPs
p2316
aVUpload with Shaquille O'Neal
p2317
aVChains of Love
p2318
aVToo Many Requests
p2319
aVToo Many Requests
p2320
aVToo Many Requests
p2321
aVToo Many Requests
p2322
aVToo Many Requests
p2323
aVToo Many Requests
p2324
aVToo Many Requests
p2325
aVToo Many Requests
p2326
aVToo Many Requests
p2327
aVToo Many Requests
p2328
aVToo Many Requests
p2329
aVToo Many Requests
p2330
aVToo Many Requests
p2331
aVToo Many Requests
p2332
aVToo Many Requests
p2333
aVToo Many Requests
p2334
aVToo Many Requests
p2335
aVToo Many Requests
p2336
aVToo Many Requests
p2337
aVToo Many Requests
p2338
aVToo Many Requests
p2339
aVThe Bachelor
p2340
aVMarvin Marvin
p2341
aVHole in the Wall
p2342
aVSunset Tan
p2343
aVBridalplasty
p2344
aVSmoky Mountain Money
p2345
aV15 Kids and Counting
p2346
aVToo Many Requests
p2347
aVToo Many Requests
p2348
aVToo Many Requests
p2349
aVToo Many Requests
p2350
aVToo Many Requests
p2351
aVToo Many Requests
p2352
aVToo Many Requests
p2353
aVToo Many Requests
p2354
aVToo Many Requests
p2355
aVToo Many Requests
p2356
aVToo Many Requests
p2357
aVToo Many Requests
p2358
aVToo Many Requests
p2359
aVToo Many Requests
p2360
aVToo Many Requests
p2361
aVToo Many Requests
p2362
aVToo Many Requests
p2363
aVToo Many Requests
p2364
aVToo Many Requests
p2365
aVToo Many Requests
p2366
aVToo Many Requests
p2367
aVToo Many Requests
p2368
aVThe Bachelorette
p2369
aVThe Only Way is Essex
p2370
aV16 and Pregnant
p2371
aVMind of Mencia
p2372
aVOperation Repo
p2373
aVAmish Mafia
p2374
aVThe Devils Ride
p2375
aVThe Josh Wolf Show
p2376
aVBet on Your Baby
p2377
aVPreach
p2378
aVToo Many Requests
p2379
aVToo Many Requests
p2380
aVToo Many Requests
p2381
aVToo Many Requests
p2382
aVToo Many Requests
p2383
aVToo Many Requests
p2384
aVToo Many Requests
p2385
aVToo Many Requests
p2386
aVToo Many Requests
p2387
aVToo Many Requests
p2388
aVToo Many Requests
p2389
aVToo Many Requests
p2390
aVToo Many Requests
p2391
aVToo Many Requests
p2392
aVToo Many Requests
p2393
aVToo Many Requests
p2394
aVToo Many Requests
p2395
aVFanboy & Chum Chum
p2396
aVSnooki & JWoww
p2397
aVLevel Up
p2398
aVSupernoobs
p2399
aVRocket Monkeys
p2400
aVSay Yes to the Dress: Canada
p2401
aVBoys Before Friends
p2402
aVThe GC
p2403
aVKatie
p2404
aVThat's Amore!
p2405
aVToo Many Requests
p2406
aVToo Many Requests
p2407
aVToo Many Requests
p2408
aVToo Many Requests
p2409
aVToo Many Requests
p2410
aVToo Many Requests
p2411
aVToo Many Requests
p2412
aVToo Many Requests
p2413
aVToo Many Requests
p2414
aVToo Many Requests
p2415
aVToo Many Requests
p2416
aVToo Many Requests
p2417
aVToo Many Requests
p2418
aVToo Many Requests
p2419
aVToo Many Requests
p2420
aVToo Many Requests
p2421
aVToo Many Requests
p2422
aVToo Many Requests
p2423
aVToo Many Requests
p2424
aVToo Many Requests
p2425
aVToo Many Requests
p2426
aVToo Many Requests
p2427
aVToo Many Requests
p2428
aVToo Many Requests
p2429
aVCloudy with a Chance of Meatballs
p2430
aVKourtney & Kim Take Miami
p2431
aVPlanet Sheen
p2432
aVWork It
p2433
aVSAF3
p2434
aVPawn Stars UK
p2435
aVThe Internet Ruined My Life
p2436
aVSex with Brody
p2437
aVToo Many Requests
p2438
aVToo Many Requests
p2439
aVToo Many Requests
p2440
aVToo Many Requests
p2441
aVToo Many Requests
p2442
aVToo Many Requests
p2443
aVToo Many Requests
p2444
aVToo Many Requests
p2445
aVToo Many Requests
p2446
aVToo Many Requests
p2447
aVToo Many Requests
p2448
aVToo Many Requests
p2449
aVToo Many Requests
p2450
aVToo Many Requests
p2451
aVToo Many Requests
p2452
aVToo Many Requests
p2453
aVToo Many Requests
p2454
aVToo Many Requests
p2455
aVToo Many Requests
p2456
aVToo Many Requests
p2457
aVExtreme Guide to Parenting
p2458
aVTyler Perry's House of Payne
p2459
aVThe Inbetweeners
p2460
aV19 Kids and Counting
p2461
aVTalia in the Kitchen
p2462
aVThe Factor
p2463
aVViva Laughlin
p2464
aVToo Many Requests
p2465
atp2466
bag19
(g20
(I0
tp2467
g22
tp2468
Rp2469
(I1
(I6
I229
tp2470
g29
I00
(lp2471
(dp2472
Vcountry
p2473
(dp2474
Vtimezone
p2475
VAmerica/New_York
p2476
sVcode
p2477
VUS
p2478
sVname
p2479
VUnited States
p2480
ssVid
p2481
I5
sVname
p2482
VThe CW
p2483
sa(dp2484
Vcountry
p2485
(dp2486
Vtimezone
p2487
VAmerica/New_York
p2488
sVcode
p2489
VUS
p2490
sVname
p2491
VUnited States
p2492
ssVid
p2493
I84
sVname
p2494
VtruTV
p2495
sa(dp2496
Vcountry
p2497
(dp2498
Vtimezone
p2499
VAmerica/New_York
p2500
sVcode
p2501
VUS
p2502
sVname
p2503
VUnited States
p2504
ssVid
p2505
I80
sVname
p2506
VTLC
p2507
sa(dp2508
Vcountry
p2509
(dp2510
Vtimezone
p2511
VAmerica/New_York
p2512
sVcode
p2513
VUS
p2514
sVname
p2515
VUnited States
p2516
ssVid
p2517
I73
sVname
p2518
Vnicktoons
p2519
sa(dp2520
Vcountry
p2521
(dp2522
Vtimezone
p2523
VAmerica/New_York
p2524
sVcode
p2525
VUS
p2526
sVname
p2527
VUnited States
p2528
ssVid
p2529
I11
sVname
p2530
VCartoon Network
p2531
sa(dp2532
Vcountry
p2533
(dp2534
Vtimezone
p2535
VAmerica/New_York
p2536
sVcode
p2537
VUS
p2538
sVname
p2539
VUnited States
p2540
ssVid
p2541
I22
sVname
p2542
VMTV
p2543
sa(dp2544
Vcountry
p2545
(dp2546
Vtimezone
p2547
VAmerica/New_York
p2548
sVcode
p2549
VUS
p2550
sVname
p2551
VUnited States
p2552
ssVid
p2553
I18
sVname
p2554
VLifetime
p2555
sa(dp2556
Vcountry
p2557
(dp2558
Vtimezone
p2559
VAmerica/New_York
p2560
sVcode
p2561
VUS
p2562
sVname
p2563
VUnited States
p2564
ssVid
p2565
I3
sVname
p2566
VABC
p2567
sa(dp2568
Vcountry
p2569
(dp2570
Vtimezone
p2571
VAmerica/New_York
p2572
sVcode
p2573
VUS
p2574
sVname
p2575
VUnited States
p2576
ssVid
p2577
I1485
sVname
p2578
VMyx TV
p2579
sa(dp2580
Vcountry
p2581
(dp2582
Vtimezone
p2583
VAmerica/New_York
p2584
sVcode
p2585
VUS
p2586
sVname
p2587
VUnited States
p2588
ssVid
p2589
I79
sVname
p2590
VOxygen
p2591
sa(dp2592
Vcountry
p2593
(dp2594
Vtimezone
p2595
VAustralia/Sydney
p2596
sVcode
p2597
VAU
p2598
sVname
p2599
VAustralia
p2600
ssVid
p2601
I251
sVname
p2602
VSeven Network
p2603
saFnan
a(dp2604
Vcountry
p2605
(dp2606
Vtimezone
p2607
VAustralia/Sydney
p2608
sVcode
p2609
VAU
p2610
sVname
p2611
VAustralia
p2612
ssVid
p2613
I120
sVname
p2614
VNine Network
p2615
sa(dp2616
Vcountry
p2617
(dp2618
Vtimezone
p2619
VAmerica/New_York
p2620
sVcode
p2621
VUS
p2622
sVname
p2623
VUnited States
p2624
ssVid
p2625
I84
sVname
p2626
VtruTV
p2627
saNa(dp2628
Vcountry
p2629
(dp2630
Vtimezone
p2631
VAmerica/New_York
p2632
sVcode
p2633
VUS
p2634
sVname
p2635
VUnited States
p2636
ssVid
p2637
I80
sVname
p2638
VTLC
p2639
sa(dp2640
Vcountry
p2641
(dp2642
Vtimezone
p2643
VAmerica/New_York
p2644
sVcode
p2645
VUS
p2646
sVname
p2647
VUnited States
p2648
ssVid
p2649
I185
sVname
p2650
VFOX News Channel
p2651
sa(dp2652
Vcountry
p2653
(dp2654
Vtimezone
p2655
VAmerica/New_York
p2656
sVcode
p2657
VUS
p2658
sVname
p2659
VUnited States
p2660
ssVid
p2661
I11
sVname
p2662
VCartoon Network
p2663
sa(dp2664
Vcountry
p2665
(dp2666
Vtimezone
p2667
VAmerica/New_York
p2668
sVcode
p2669
VUS
p2670
sVname
p2671
VUnited States
p2672
ssVid
p2673
I52
sVname
p2674
VBravo
p2675
sa(dp2676
Vcountry
p2677
(dp2678
Vtimezone
p2679
VAmerica/New_York
p2680
sVcode
p2681
VUS
p2682
sVname
p2683
VUnited States
p2684
ssVid
p2685
I5
sVname
p2686
VThe CW
p2687
sa(dp2688
Vcountry
p2689
(dp2690
Vtimezone
p2691
VAmerica/New_York
p2692
sVcode
p2693
VUS
p2694
sVname
p2695
VUnited States
p2696
ssVid
p2697
I27
sVname
p2698
VNickelodeon
p2699
sa(dp2700
Vcountry
p2701
(dp2702
Vtimezone
p2703
VCanada/Atlantic
p2704
sVcode
p2705
VCA
p2706
sVname
p2707
VCanada
p2708
ssVid
p2709
I6
sVname
p2710
VShowcase
p2711
sa(dp2712
Vcountry
p2713
(dp2714
Vtimezone
p2715
VAmerica/New_York
p2716
sVcode
p2717
VUS
p2718
sVname
p2719
VUnited States
p2720
ssVid
p2721
I43
sVname
p2722
VE!
p2723
sa(dp2724
Vcountry
p2725
(dp2726
Vtimezone
p2727
VAmerica/New_York
p2728
sVcode
p2729
VUS
p2730
sVname
p2731
VUnited States
p2732
ssVid
p2733
I122
sVname
p2734
VWe tv
p2735
sa(dp2736
Vcountry
p2737
(dp2738
Vtimezone
p2739
VAmerica/New_York
p2740
sVcode
p2741
VUS
p2742
sVname
p2743
VUnited States
p2744
ssVid
p2745
I80
sVname
p2746
VTLC
p2747
sa(dp2748
Vcountry
p2749
(dp2750
Vtimezone
p2751
VAmerica/New_York
p2752
sVcode
p2753
VUS
p2754
sVname
p2755
VUnited States
p2756
ssVid
p2757
I5
sVname
p2758
VThe CW
p2759
sa(dp2760
Vcountry
p2761
(dp2762
Vtimezone
p2763
VAmerica/New_York
p2764
sVcode
p2765
VUS
p2766
sVname
p2767
VUnited States
p2768
ssVid
p2769
I4
sVname
p2770
VFOX
p2771
sa(dp2772
Vcountry
p2773
(dp2774
Vtimezone
p2775
VCanada/Atlantic
p2776
sVcode
p2777
VCA
p2778
sVname
p2779
VCanada
p2780
ssVid
p2781
I144
sVname
p2782
VYTV
p2783
sa(dp2784
Vcountry
p2785
(dp2786
Vtimezone
p2787
VAsia/Seoul
p2788
sVcode
p2789
VKR
p2790
sVname
p2791
VKorea, Republic of
p2792
ssVid
p2793
I714
sVname
p2794
VEBS
p2795
sa(dp2796
Vcountry
p2797
(dp2798
Vtimezone
p2799
VAmerica/New_York
p2800
sVcode
p2801
VUS
p2802
sVname
p2803
VUnited States
p2804
ssVid
p2805
I4
sVname
p2806
VFOX
p2807
sa(dp2808
Vcountry
p2809
(dp2810
Vtimezone
p2811
VEurope/London
p2812
sVcode
p2813
VGB
p2814
sVname
p2815
VUnited Kingdom
p2816
ssVid
p2817
I652
sVname
p2818
VCartoon Network
p2819
sa(dp2820
Vcountry
p2821
(dp2822
Vtimezone
p2823
VAmerica/New_York
p2824
sVcode
p2825
VUS
p2826
sVname
p2827
VUnited States
p2828
ssVid
p2829
I11
sVname
p2830
VCartoon Network
p2831
sa(dp2832
Vcountry
p2833
(dp2834
Vtimezone
p2835
VAmerica/New_York
p2836
sVcode
p2837
VUS
p2838
sVname
p2839
VUnited States
p2840
ssVid
p2841
I84
sVname
p2842
VtruTV
p2843
sa(dp2844
Vcountry
p2845
(dp2846
Vtimezone
p2847
VAmerica/New_York
p2848
sVcode
p2849
VUS
p2850
sVname
p2851
VUnited States
p2852
ssVid
p2853
I18
sVname
p2854
VLifetime
p2855
sa(dp2856
Vcountry
p2857
(dp2858
Vtimezone
p2859
VAmerica/New_York
p2860
sVcode
p2861
VUS
p2862
sVname
p2863
VUnited States
p2864
ssVid
p2865
I16
sVname
p2866
VSyfy
p2867
saFnan
aFnan
aFnan
aFnan
aFnan
aFnan
aFnan
a(dp2868
Vcountry
p2869
(dp2870
Vtimezone
p2871
VAustralia/Sydney
p2872
sVcode
p2873
VAU
p2874
sVname
p2875
VAustralia
p2876
ssVid
p2877
I149
sVname
p2878
VNetwork Ten
p2879
sa(dp2880
Vcountry
p2881
(dp2882
Vtimezone
p2883
VAmerica/New_York
p2884
sVcode
p2885
VUS
p2886
sVname
p2887
VUnited States
p2888
ssVid
p2889
I43
sVname
p2890
VE!
p2891
sa(dp2892
Vcountry
p2893
(dp2894
Vtimezone
p2895
VEurope/London
p2896
sVcode
p2897
VGB
p2898
sVname
p2899
VUnited Kingdom
p2900
ssVid
p2901
I309
sVname
p2902
VComedy Central
p2903
saNa(dp2904
Vcountry
p2905
(dp2906
Vtimezone
p2907
VAmerica/New_York
p2908
sVcode
p2909
VUS
p2910
sVname
p2911
VUnited States
p2912
ssVid
p2913
I1
sVname
p2914
VNBC
p2915
sa(dp2916
Vcountry
p2917
(dp2918
Vtimezone
p2919
VAmerica/New_York
p2920
sVcode
p2921
VUS
p2922
sVname
p2923
VUnited States
p2924
ssVid
p2925
I52
sVname
p2926
VBravo
p2927
saFnan
aFnan
aFnan
aFnan
aFnan
aFnan
aFnan
aFnan
aFnan
aFnan
aFnan
aFnan
aFnan
aFnan
aFnan
aFnan
aFnan
aFnan
aFnan
aFnan
aFnan
aFnan
aFnan
a(dp2928
Vcountry
p2929
(dp2930
Vtimezone
p2931
VAmerica/New_York
p2932
sVcode
p2933
VUS
p2934
sVname
p2935
VUnited States
p2936
ssVid
p2937
I3
sVname
p2938
VABC
p2939
sa(dp2940
Vcountry
p2941
(dp2942
Vtimezone
p2943
VAmerica/New_York
p2944
sVcode
p2945
VUS
p2946
sVname
p2947
VUnited States
p2948
ssVid
p2949
I73
sVname
p2950
Vnicktoons
p2951
sa(dp2952
Vcountry
p2953
(dp2954
Vtimezone
p2955
VAmerica/New_York
p2956
sVcode
p2957
VUS
p2958
sVname
p2959
VUnited States
p2960
ssVid
p2961
I125
sVname
p2962
Vfyi,
p2963
sa(dp2964
Vcountry
p2965
(dp2966
Vtimezone
p2967
VEurope/London
p2968
sVcode
p2969
VGB
p2970
sVname
p2971
VUnited Kingdom
p2972
ssVid
p2973
I49
sVname
p2974
VBBC Three
p2975
sa(dp2976
Vcountry
p2977
(dp2978
Vtimezone
p2979
VAmerica/New_York
p2980
sVcode
p2981
VUS
p2982
sVname
p2983
VUnited States
p2984
ssVid
p2985
I55
sVname
p2986
VVH1
p2987
sa(dp2988
Vcountry
p2989
(dp2990
Vtimezone
p2991
VAmerica/New_York
p2992
sVcode
p2993
VUS
p2994
sVname
p2995
VUnited States
p2996
ssVid
p2997
I122
sVname
p2998
VWe tv
p2999
sa(dp3000
Vcountry
p3001
(dp3002
Vtimezone
p3003
VAmerica/New_York
p3004
sVcode
p3005
VUS
p3006
sVname
p3007
VUnited States
p3008
ssVid
p3009
I22
sVname
p3010
VMTV
p3011
sa(dp3012
Vcountry
p3013
(dp3014
Vtimezone
p3015
VAmerica/New_York
p3016
sVcode
p3017
VUS
p3018
sVname
p3019
VUnited States
p3020
ssVid
p3021
I1
sVname
p3022
VNBC
p3023
sa(dp3024
Vcountry
p3025
(dp3026
Vtimezone
p3027
VAmerica/New_York
p3028
sVcode
p3029
VUS
p3030
sVname
p3031
VUnited States
p3032
ssVid
p3033
I18
sVname
p3034
VLifetime
p3035
sa(dp3036
Vcountry
p3037
(dp3038
Vtimezone
p3039
VAmerica/New_York
p3040
sVcode
p3041
VUS
p3042
sVname
p3043
VUnited States
p3044
ssVid
p3045
I84
sVname
p3046
VtruTV
p3047
sa(dp3048
Vcountry
p3049
(dp3050
Vtimezone
p3051
VAmerica/New_York
p3052
sVcode
p3053
VUS
p3054
sVname
p3055
VUnited States
p3056
ssVid
p3057
I70
sVname
p3058
VUPN
p3059
saFnan
aFnan
aFnan
aFnan
aFnan
aFnan
aFnan
aFnan
aFnan
aFnan
aFnan
aFnan
aFnan
aFnan
aFnan
aFnan
aFnan
aFnan
aFnan
aFnan
aFnan
a(dp3060
Vcountry
p3061
(dp3062
Vtimezone
p3063
VAmerica/New_York
p3064
sVcode
p3065
VUS
p3066
sVname
p3067
VUnited States
p3068
ssVid
p3069
I3
sVname
p3070
VABC
p3071
sa(dp3072
Vcountry
p3073
(dp3074
Vtimezone
p3075
VAmerica/New_York
p3076
sVcode
p3077
VUS
p3078
sVname
p3079
VUnited States
p3080
ssVid
p3081
I27
sVname
p3082
VNickelodeon
p3083
sa(dp3084
Vcountry
p3085
(dp3086
Vtimezone
p3087
VAmerica/New_York
p3088
sVcode
p3089
VUS
p3090
sVname
p3091
VUnited States
p3092
ssVid
p3093
I11
sVname
p3094
VCartoon Network
p3095
sa(dp3096
Vcountry
p3097
(dp3098
Vtimezone
p3099
VAmerica/New_York
p3100
sVcode
p3101
VUS
p3102
sVname
p3103
VUnited States
p3104
ssVid
p3105
I43
sVname
p3106
VE!
p3107
sa(dp3108
Vcountry
p3109
(dp3110
Vtimezone
p3111
VAmerica/New_York
p3112
sVcode
p3113
VUS
p3114
sVname
p3115
VUnited States
p3116
ssVid
p3117
I43
sVname
p3118
VE!
p3119
sa(dp3120
Vcountry
p3121
(dp3122
Vtimezone
p3123
VAmerica/New_York
p3124
sVcode
p3125
VUS
p3126
sVname
p3127
VUnited States
p3128
ssVid
p3129
I42
sVname
p3130
VNational Geographic Channel
p3131
sa(dp3132
Vcountry
p3133
(dp3134
Vtimezone
p3135
VEurope/London
p3136
sVcode
p3137
VGB
p3138
sVname
p3139
VUnited Kingdom
p3140
ssVid
p3141
I45
sVname
p3142
VChannel 4
p3143
saFnan
aFnan
aFnan
aFnan
aFnan
aFnan
aFnan
aFnan
aFnan
aFnan
aFnan
aFnan
aFnan
aFnan
aFnan
aFnan
aFnan
aFnan
aFnan
aFnan
aFnan
aFnan
a(dp3144
Vcountry
p3145
(dp3146
Vtimezone
p3147
VAmerica/New_York
p3148
sVcode
p3149
VUS
p3150
sVname
p3151
VUnited States
p3152
ssVid
p3153
I3
sVname
p3154
VABC
p3155
sa(dp3156
Vcountry
p3157
(dp3158
Vtimezone
p3159
VEurope/London
p3160
sVcode
p3161
VGB
p3162
sVname
p3163
VUnited Kingdom
p3164
ssVid
p3165
I551
sVname
p3166
VITV Be
p3167
sa(dp3168
Vcountry
p3169
(dp3170
Vtimezone
p3171
VAmerica/New_York
p3172
sVcode
p3173
VUS
p3174
sVname
p3175
VUnited States
p3176
ssVid
p3177
I22
sVname
p3178
VMTV
p3179
sa(dp3180
Vcountry
p3181
(dp3182
Vtimezone
p3183
VAmerica/New_York
p3184
sVcode
p3185
VUS
p3186
sVname
p3187
VUnited States
p3188
ssVid
p3189
I23
sVname
p3190
VComedy Central
p3191
sa(dp3192
Vcountry
p3193
(dp3194
Vtimezone
p3195
VAmerica/New_York
p3196
sVcode
p3197
VUS
p3198
sVname
p3199
VUnited States
p3200
ssVid
p3201
I84
sVname
p3202
VtruTV
p3203
sa(dp3204
Vcountry
p3205
(dp3206
Vtimezone
p3207
VAmerica/New_York
p3208
sVcode
p3209
VUS
p3210
sVname
p3211
VUnited States
p3212
ssVid
p3213
I66
sVname
p3214
VDiscovery Channel
p3215
sa(dp3216
Vcountry
p3217
(dp3218
Vtimezone
p3219
VAmerica/New_York
p3220
sVcode
p3221
VUS
p3222
sVname
p3223
VUnited States
p3224
ssVid
p3225
I66
sVname
p3226
VDiscovery Channel
p3227
sa(dp3228
Vcountry
p3229
(dp3230
Vtimezone
p3231
VAmerica/New_York
p3232
sVcode
p3233
VUS
p3234
sVname
p3235
VUnited States
p3236
ssVid
p3237
I173
sVname
p3238
VCMT
p3239
sa(dp3240
Vcountry
p3241
(dp3242
Vtimezone
p3243
VAmerica/New_York
p3244
sVcode
p3245
VUS
p3246
sVname
p3247
VUnited States
p3248
ssVid
p3249
I3
sVname
p3250
VABC
p3251
sa(dp3252
Vcountry
p3253
(dp3254
Vtimezone
p3255
VAmerica/New_York
p3256
sVcode
p3257
VUS
p3258
sVname
p3259
VUnited States
p3260
ssVid
p3261
I18
sVname
p3262
VLifetime
p3263
saFnan
aFnan
aFnan
aFnan
aFnan
aFnan
aFnan
aFnan
aFnan
aFnan
aFnan
aFnan
aFnan
aFnan
aFnan
aFnan
aFnan
a(dp3264
Vcountry
p3265
(dp3266
Vtimezone
p3267
VAmerica/New_York
p3268
sVcode
p3269
VUS
p3270
sVname
p3271
VUnited States
p3272
ssVid
p3273
I27
sVname
p3274
VNickelodeon
p3275
sa(dp3276
Vcountry
p3277
(dp3278
Vtimezone
p3279
VAmerica/New_York
p3280
sVcode
p3281
VUS
p3282
sVname
p3283
VUnited States
p3284
ssVid
p3285
I22
sVname
p3286
VMTV
p3287
sa(dp3288
Vcountry
p3289
(dp3290
Vtimezone
p3291
VAmerica/New_York
p3292
sVcode
p3293
VUS
p3294
sVname
p3295
VUnited States
p3296
ssVid
p3297
I11
sVname
p3298
VCartoon Network
p3299
sa(dp3300
Vcountry
p3301
(dp3302
Vtimezone
p3303
VCanada/Atlantic
p3304
sVcode
p3305
VCA
p3306
sVname
p3307
VCanada
p3308
ssVid
p3309
I376
sVname
p3310
VTeletoon
p3311
sa(dp3312
Vcountry
p3313
(dp3314
Vtimezone
p3315
VCanada/Atlantic
p3316
sVcode
p3317
VCA
p3318
sVname
p3319
VCanada
p3320
ssVid
p3321
I376
sVname
p3322
VTeletoon
p3323
sa(dp3324
Vcountry
p3325
(dp3326
Vtimezone
p3327
VCanada/Atlantic
p3328
sVcode
p3329
VCA
p3330
sVname
p3331
VCanada
p3332
ssVid
p3333
I286
sVname
p3334
VW Network
p3335
saNa(dp3336
Vcountry
p3337
(dp3338
Vtimezone
p3339
VPacific/Auckland
p3340
sVcode
p3341
VNZ
p3342
sVname
p3343
VNew Zealand
p3344
ssVid
p3345
I1027
sVname
p3346
VBravo
p3347
sa(dp3348
Vcountry
p3349
(dp3350
Vtimezone
p3351
VEurope/London
p3352
sVcode
p3353
VGB
p3354
sVname
p3355
VUnited Kingdom
p3356
ssVid
p3357
I44
sVname
p3358
VSky LIVING
p3359
sa(dp3360
Vcountry
p3361
(dp3362
Vtimezone
p3363
VAmerica/New_York
p3364
sVcode
p3365
VUS
p3366
sVname
p3367
VUnited States
p3368
ssVid
p3369
I22
sVname
p3370
VMTV
p3371
saFnan
aFnan
aFnan
aFnan
aFnan
aFnan
aFnan
aFnan
aFnan
aFnan
aFnan
aFnan
aFnan
aFnan
aFnan
aFnan
aFnan
aFnan
aFnan
aFnan
aFnan
aFnan
aFnan
aFnan
a(dp3372
Vcountry
p3373
(dp3374
Vtimezone
p3375
VAmerica/New_York
p3376
sVcode
p3377
VUS
p3378
sVname
p3379
VUnited States
p3380
ssVid
p3381
I11
sVname
p3382
VCartoon Network
p3383
sa(dp3384
Vcountry
p3385
(dp3386
Vtimezone
p3387
VAmerica/New_York
p3388
sVcode
p3389
VUS
p3390
sVname
p3391
VUnited States
p3392
ssVid
p3393
I43
sVname
p3394
VE!
p3395
sa(dp3396
Vcountry
p3397
(dp3398
Vtimezone
p3399
VAmerica/New_York
p3400
sVcode
p3401
VUS
p3402
sVname
p3403
VUnited States
p3404
ssVid
p3405
I27
sVname
p3406
VNickelodeon
p3407
sa(dp3408
Vcountry
p3409
(dp3410
Vtimezone
p3411
VAmerica/New_York
p3412
sVcode
p3413
VUS
p3414
sVname
p3415
VUnited States
p3416
ssVid
p3417
I3
sVname
p3418
VABC
p3419
sa(dp3420
Vcountry
p3421
(dp3422
Vtimezone
p3423
VAmerica/New_York
p3424
sVcode
p3425
VUS
p3426
sVname
p3427
VUnited States
p3428
ssVid
p3429
I72
sVname
p3430
VSyndication
p3431
sa(dp3432
Vcountry
p3433
(dp3434
Vtimezone
p3435
VEurope/London
p3436
sVcode
p3437
VGB
p3438
sVname
p3439
VUnited Kingdom
p3440
ssVid
p3441
I639
sVname
p3442
VHistory
p3443
sa(dp3444
Vcountry
p3445
(dp3446
Vtimezone
p3447
VAmerica/New_York
p3448
sVcode
p3449
VUS
p3450
sVname
p3451
VUnited States
p3452
ssVid
p3453
I16
sVname
p3454
VSyfy
p3455
sa(dp3456
Vcountry
p3457
(dp3458
Vtimezone
p3459
VAmerica/New_York
p3460
sVcode
p3461
VUS
p3462
sVname
p3463
VUnited States
p3464
ssVid
p3465
I43
sVname
p3466
VE!
p3467
saFnan
aFnan
aFnan
aFnan
aFnan
aFnan
aFnan
aFnan
aFnan
aFnan
aFnan
aFnan
aFnan
aFnan
aFnan
aFnan
aFnan
aFnan
aFnan
aFnan
a(dp3468
Vcountry
p3469
(dp3470
Vtimezone
p3471
VAmerica/New_York
p3472
sVcode
p3473
VUS
p3474
sVname
p3475
VUnited States
p3476
ssVid
p3477
I52
sVname
p3478
VBravo
p3479
sa(dp3480
Vcountry
p3481
(dp3482
Vtimezone
p3483
VAmerica/New_York
p3484
sVcode
p3485
VUS
p3486
sVname
p3487
VUnited States
p3488
ssVid
p3489
I32
sVname
p3490
VTBS
p3491
sa(dp3492
Vcountry
p3493
(dp3494
Vtimezone
p3495
VAmerica/New_York
p3496
sVcode
p3497
VUS
p3498
sVname
p3499
VUnited States
p3500
ssVid
p3501
I22
sVname
p3502
VMTV
p3503
sa(dp3504
Vcountry
p3505
(dp3506
Vtimezone
p3507
VAmerica/New_York
p3508
sVcode
p3509
VUS
p3510
sVname
p3511
VUnited States
p3512
ssVid
p3513
I80
sVname
p3514
VTLC
p3515
sa(dp3516
Vcountry
p3517
(dp3518
Vtimezone
p3519
VAmerica/New_York
p3520
sVcode
p3521
VUS
p3522
sVname
p3523
VUnited States
p3524
ssVid
p3525
I27
sVname
p3526
VNickelodeon
p3527
sa(dp3528
Vcountry
p3529
(dp3530
Vtimezone
p3531
VAmerica/New_York
p3532
sVcode
p3533
VUS
p3534
sVname
p3535
VUnited States
p3536
ssVid
p3537
I185
sVname
p3538
VFOX News Channel
p3539
sa(dp3540
Vcountry
p3541
(dp3542
Vtimezone
p3543
VAmerica/New_York
p3544
sVcode
p3545
VUS
p3546
sVname
p3547
VUnited States
p3548
ssVid
p3549
I2
sVname
p3550
VCBS
p3551
saFnan
aVhttp://www.thebillcunninghamshow.com/
p3552
aVhttp://www.trutv.com/shows/six-degrees-of-everything/index.html
p3553
aNaNaNaVhttp://www.mtv.com/shows/my-super-sweet-sixteen
p3554
aNaNaVhttp://myxtv.com/shows/the-nutshack
p3555
aNaNaFnan
aNaNaVhttps://www.youtube.com/watch?v=BbbsBBO_jqg
p3556
aNaVhttp://insider.foxnews.com/2017/04/28/fox-news-specialists-eric-bolling-kat-timpf-eboni-williams-debuts-fox-news
p3557
aNaNaNaNaNaNaNaNaNaNaNaVhttp://www.ticketytoc.com/
p3558
aNaVhttp://ben10.cartoonnetwork.co.uk
p3559
aNaNaVhttp://www.mylifetime.com/shows/fashionably-late-with-rachel-zoe
p3560
aNaFnan
aFnan
aFnan
aFnan
aFnan
aFnan
aFnan
aNaVhttp://www.eonline.com/shows/kardashians
p3561
aVhttp://www.comedycentral.co.uk/i-live-with-models
p3562
aVhttps://thezvirus.vhx.tv/
p3563
aNaNaFnan
aFnan
aFnan
aFnan
aFnan
aFnan
aFnan
aFnan
aFnan
aFnan
aFnan
aFnan
aFnan
aFnan
aFnan
aFnan
aFnan
aFnan
aFnan
aFnan
aFnan
aFnan
aFnan
aVhttp://abc.go.com/shows/the-view/about-the-show
p3564
aVhttp://www.nick.com/breadwinners-show/
p3565
aNaVhttp://www.bbc.co.uk/programmes/b00j7mh6
p3566
aVhttp://www.vh1.com/shows/brooke_knows_best/series.jhtml
p3567
aNaVhttp://www.mtv.com/ontv/dyn/bromance/series.jhtml
p3568
aVhttp://www.nbc.com/howie-do-it?nbc=1
p3569
aNaNaNaFnan
aFnan
aFnan
aFnan
aFnan
aFnan
aFnan
aFnan
aFnan
aFnan
aFnan
aFnan
aFnan
aFnan
aFnan
aFnan
aFnan
aFnan
aFnan
aFnan
aFnan
aVhttp://abc.go.com/shows/the-bachelor
p3570
aNaNaNaNaVhttp://channel.nationalgeographic.com/smoky-mountain-money/
p3571
aVhttp://www.channel4.com/programmes/15-kids-and-counting
p3572
aFnan
aFnan
aFnan
aFnan
aFnan
aFnan
aFnan
aFnan
aFnan
aFnan
aFnan
aFnan
aFnan
aFnan
aFnan
aFnan
aFnan
aFnan
aFnan
aFnan
aFnan
aFnan
aVhttp://abc.go.com/shows/the-bachelorette
p3573
aVhttp://www.itv.com/essex
p3574
aVhttp://www.mtv.com/shows/16_and_pregnant/
p3575
aVhttp://www.cc.com/shows/mind-of-mencia
p3576
aNaNaNaVhttp://www.cmt.com/shows/josh-wolf-show
p3577
aNaNaFnan
aFnan
aFnan
aFnan
aFnan
aFnan
aFnan
aFnan
aFnan
aFnan
aFnan
aFnan
aFnan
aFnan
aFnan
aFnan
aFnan
aNaNaNaVhttp://www.cartoonnetwork.co.uk/show/supernoobs
p3578
aVhttp://www.teletoon.com/en/tv/rocketMonkeys
p3579
aNaVhttps://www.viki.com/tv/22268c-boys-before-friends?locale=en
p3580
aVhttp://www.four.co.nz/TV/Shows/TheGC.aspx
p3581
aNaNaFnan
aFnan
aFnan
aFnan
aFnan
aFnan
aFnan
aFnan
aFnan
aFnan
aFnan
aFnan
aFnan
aFnan
aFnan
aFnan
aFnan
aFnan
aFnan
aFnan
aFnan
aFnan
aFnan
aFnan
aVhttp://www.cartoonbrew.com/tv/first-look-cartoon-networks-2d-cloudy-chance-meatballs-series-145968.html
p3582
aVhttp://www.eonline.com/shows/kourtney_and_kim_take_miami
p3583
aNaVhttp://abc.go.com/shows/work-it
p3584
aNaVhttp://www.pawnstarsuk.tv/
p3585
aVhttp://www.syfy.com/theinternetruinedmylife
p3586
aNaFnan
aFnan
aFnan
aFnan
aFnan
aFnan
aFnan
aFnan
aFnan
aFnan
aFnan
aFnan
aFnan
aFnan
aFnan
aFnan
aFnan
aFnan
aFnan
aFnan
aVhttp://www.bravotv.com/extreme-guide-to-parenting
p3587
aNaNaVhttp://www.tlc.com/tv-shows/19-kids-and-counting/
p3588
aVhttp://www.nick.com/talia-in-the-kitchen/
p3589
aVhttp://www.foxnews.com/shows/the-oreilly-factor.html
p3590
aNaFnan
aV2011-09-19
p3591
aV2015-08-18
p3592
aV2009-01-27
p3593
aV2012-04-27
p3594
aV2011-04-04
p3595
aV2005-01-18
p3596
aV2012-06-19
p3597
aV1950-09-11
p3598
aV2007-04-25
p3599
aV2011-06-01
p3600
aV2013-04-29
p3601
aFnan
aV2016-05-23
p3602
aV2015-12-29
p3603
aV2015-04-02
p3604
aV2011-02-21
p3605
aV2017-05-01
p3606
aV2012-05-28
p3607
aV2010-08-05
p3608
aV2011-09-14
p3609
aV2013-07-01
p3610
aV2011-06-02
p3611
aV2008-05-26
p3612
aV2009-02-18
p3613
aV2012-08-08
p3614
aV2010-03-10
p3615
aV2004-04-07
p3616
aV2006-03-18
p3617
aV2012-09-10
p3618
aV2007-08-22
p3619
aV2016-10-01
p3620
aV2009-10-05
p3621
aV2010-04-12
p3622
aV2015-09-24
p3623
aV2013-12-04
p3624
aFnan
aFnan
aFnan
aFnan
aFnan
aFnan
aFnan
aV2012-06-12
p3625
aV2007-10-14
p3626
aV2015-02-23
p3627
aV2017-01-01
p3628
aV2002-01-08
p3629
aV2011-02-22
p3630
aFnan
aFnan
aFnan
aFnan
aFnan
aFnan
aFnan
aFnan
aFnan
aFnan
aFnan
aFnan
aFnan
aFnan
aFnan
aFnan
aFnan
aFnan
aFnan
aFnan
aFnan
aFnan
aFnan
aV1997-08-11
p3631
aV2014-02-17
p3632
aV2016-01-20
p3633
aV2009-03-10
p3634
aV2008-07-13
p3635
aV2013-06-14
p3636
aV2008-12-29
p3637
aV2009-01-09
p3638
aV2014-07-23
p3639
aV2013-02-21
p3640
aNaFnan
aFnan
aFnan
aFnan
aFnan
aFnan
aFnan
aFnan
aFnan
aFnan
aFnan
aFnan
aFnan
aFnan
aFnan
aFnan
aFnan
aFnan
aFnan
aFnan
aFnan
aV2002-03-25
p3641
aV2012-11-24
p3642
aV2008-09-07
p3643
aV2007-05-28
p3644
aV2010-11-28
p3645
aV2014-09-17
p3646
aV2012-01-17
p3647
aFnan
aFnan
aFnan
aFnan
aFnan
aFnan
aFnan
aFnan
aFnan
aFnan
aFnan
aFnan
aFnan
aFnan
aFnan
aFnan
aFnan
aFnan
aFnan
aFnan
aFnan
aFnan
aV2003-01-08
p3648
aV2010-10-10
p3649
aV2009-06-11
p3650
aV2005-07-06
p3651
aV2008-11-17
p3652
aV2012-12-11
p3653
aV2012-05-08
p3654
aV2015-06-11
p3655
aV2013-04-13
p3656
aV2015-06-05
p3657
aFnan
aFnan
aFnan
aFnan
aFnan
aFnan
aFnan
aFnan
aFnan
aFnan
aFnan
aFnan
aFnan
aFnan
aFnan
aFnan
aFnan
aV2009-11-06
p3658
aV2012-06-21
p3659
aV2012-01-24
p3660
aV2015-11-02
p3661
aV2013-01-10
p3662
aV2015-01-07
p3663
aV2013-12-26
p3664
aV2012-05-02
p3665
aV2009-08-27
p3666
aV2008-03-02
p3667
aFnan
aFnan
aFnan
aFnan
aFnan
aFnan
aFnan
aFnan
aFnan
aFnan
aFnan
aFnan
aFnan
aFnan
aFnan
aFnan
aFnan
aFnan
aFnan
aFnan
aFnan
aFnan
aFnan
aFnan
aV2017-02-20
p3668
aV2009-08-16
p3669
aV2010-10-02
p3670
aV2012-01-03
p3671
aV2013-09-21
p3672
aV2013-08-26
p3673
aV2016-03-09
p3674
aV2015-07-10
p3675
aFnan
aFnan
aFnan
aFnan
aFnan
aFnan
aFnan
aFnan
aFnan
aFnan
aFnan
aFnan
aFnan
aFnan
aFnan
aFnan
aFnan
aFnan
aFnan
aFnan
aV2014-08-07
p3676
aV2007-06-06
p3677
aV2012-08-20
p3678
aV2008-09-29
p3679
aV2015-07-06
p3680
aV1996-10-07
p3681
aV2007-10-18
p3682
aFnan
a(dp3683
Vaverage
p3684
Nsa(dp3685
Vaverage
p3686
Nsa(dp3687
Vaverage
p3688
I1
sa(dp3689
Vaverage
p3690
I10
sa(dp3691
Vaverage
p3692
Nsa(dp3693
Vaverage
p3694
Nsa(dp3695
Vaverage
p3696
Nsa(dp3697
Vaverage
p3698
Nsa(dp3699
Vaverage
p3700
Nsa(dp3701
Vaverage
p3702
Nsa(dp3703
Vaverage
p3704
NsaFnan
a(dp3705
Vaverage
p3706
I1
sa(dp3707
Vaverage
p3708
Nsa(dp3709
Vaverage
p3710
Nsa(dp3711
Vaverage
p3712
Nsa(dp3713
Vaverage
p3714
Nsa(dp3715
Vaverage
p3716
Nsa(dp3717
Vaverage
p3718
I1
sa(dp3719
Vaverage
p3720
Nsa(dp3721
Vaverage
p3722
Nsa(dp3723
Vaverage
p3724
Nsa(dp3725
Vaverage
p3726
Nsa(dp3727
Vaverage
p3728
Nsa(dp3729
Vaverage
p3730
F5.5
sa(dp3731
Vaverage
p3732
Nsa(dp3733
Vaverage
p3734
Nsa(dp3735
Vaverage
p3736
Nsa(dp3737
Vaverage
p3738
Nsa(dp3739
Vaverage
p3740
Nsa(dp3741
Vaverage
p3742
Nsa(dp3743
Vaverage
p3744
Nsa(dp3745
Vaverage
p3746
Nsa(dp3747
Vaverage
p3748
Nsa(dp3749
Vaverage
p3750
NsaFnan
aFnan
aFnan
aFnan
aFnan
aFnan
aFnan
a(dp3751
Vaverage
p3752
Nsa(dp3753
Vaverage
p3754
F5.6
sa(dp3755
Vaverage
p3756
F8.7
sa(dp3757
Vaverage
p3758
I3
sa(dp3759
Vaverage
p3760
Nsa(dp3761
Vaverage
p3762
I1
saFnan
aFnan
aFnan
aFnan
aFnan
aFnan
aFnan
aFnan
aFnan
aFnan
aFnan
aFnan
aFnan
aFnan
aFnan
aFnan
aFnan
aFnan
aFnan
aFnan
aFnan
aFnan
aFnan
a(dp3763
Vaverage
p3764
I1
sa(dp3765
Vaverage
p3766
Nsa(dp3767
Vaverage
p3768
Nsa(dp3769
Vaverage
p3770
I6
sa(dp3771
Vaverage
p3772
I7
sa(dp3773
Vaverage
p3774
Nsa(dp3775
Vaverage
p3776
Nsa(dp3777
Vaverage
p3778
Nsa(dp3779
Vaverage
p3780
Nsa(dp3781
Vaverage
p3782
Nsa(dp3783
Vaverage
p3784
NsaFnan
aFnan
aFnan
aFnan
aFnan
aFnan
aFnan
aFnan
aFnan
aFnan
aFnan
aFnan
aFnan
aFnan
aFnan
aFnan
aFnan
aFnan
aFnan
aFnan
aFnan
a(dp3785
Vaverage
p3786
I5
sa(dp3787
Vaverage
p3788
Nsa(dp3789
Vaverage
p3790
Nsa(dp3791
Vaverage
p3792
Nsa(dp3793
Vaverage
p3794
Nsa(dp3795
Vaverage
p3796
Nsa(dp3797
Vaverage
p3798
NsaFnan
aFnan
aFnan
aFnan
aFnan
aFnan
aFnan
aFnan
aFnan
aFnan
aFnan
aFnan
aFnan
aFnan
aFnan
aFnan
aFnan
aFnan
aFnan
aFnan
aFnan
aFnan
a(dp3799
Vaverage
p3800
F1.7
sa(dp3801
Vaverage
p3802
Nsa(dp3803
Vaverage
p3804
Nsa(dp3805
Vaverage
p3806
Nsa(dp3807
Vaverage
p3808
I4
sa(dp3809
Vaverage
p3810
Nsa(dp3811
Vaverage
p3812
Nsa(dp3813
Vaverage
p3814
Nsa(dp3815
Vaverage
p3816
Nsa(dp3817
Vaverage
p3818
NsaFnan
aFnan
aFnan
aFnan
aFnan
aFnan
aFnan
aFnan
aFnan
aFnan
aFnan
aFnan
aFnan
aFnan
aFnan
aFnan
aFnan
a(dp3819
Vaverage
p3820
I9
sa(dp3821
Vaverage
p3822
F6.5
sa(dp3823
Vaverage
p3824
Nsa(dp3825
Vaverage
p3826
Nsa(dp3827
Vaverage
p3828
Nsa(dp3829
Vaverage
p3830
Nsa(dp3831
Vaverage
p3832
Nsa(dp3833
Vaverage
p3834
Nsa(dp3835
Vaverage
p3836
I1
sa(dp3837
Vaverage
p3838
NsaFnan
aFnan
aFnan
aFnan
aFnan
aFnan
aFnan
aFnan
aFnan
aFnan
aFnan
aFnan
aFnan
aFnan
aFnan
aFnan
aFnan
aFnan
aFnan
aFnan
aFnan
aFnan
aFnan
aFnan
a(dp3839
Vaverage
p3840
Nsa(dp3841
Vaverage
p3842
Nsa(dp3843
Vaverage
p3844
Nsa(dp3845
Vaverage
p3846
I9
sa(dp3847
Vaverage
p3848
I6
sa(dp3849
Vaverage
p3850
I8
sa(dp3851
Vaverage
p3852
I8
sa(dp3853
Vaverage
p3854
NsaFnan
aFnan
aFnan
aFnan
aFnan
aFnan
aFnan
aFnan
aFnan
aFnan
aFnan
aFnan
aFnan
aFnan
aFnan
aFnan
aFnan
aFnan
aFnan
aFnan
a(dp3855
Vaverage
p3856
Nsa(dp3857
Vaverage
p3858
Nsa(dp3859
Vaverage
p3860
F3.3
sa(dp3861
Vaverage
p3862
I6
sa(dp3863
Vaverage
p3864
I9
sa(dp3865
Vaverage
p3866
F3.8
sa(dp3867
Vaverage
p3868
NsaFnan
aI60
aI30
aI60
aI30
aI15
aI30
aI60
aI15
aI25
aI60
aI90
aFnan
aI30
aI30
aI30
aI30
aI60
aI12
aI60
aI60
aI30
aI30
aI30
aI60
aI120
aI30
aI60
aI20
aI11
aI30
aI11
aI22
aI30
aI30
aI60
aFnan
aFnan
aFnan
aFnan
aFnan
aFnan
aFnan
aI30
aI42
aI30
aI10
aI30
aI60
aFnan
aFnan
aFnan
aFnan
aFnan
aFnan
aFnan
aFnan
aFnan
aFnan
aFnan
aFnan
aFnan
aFnan
aFnan
aFnan
aFnan
aFnan
aFnan
aFnan
aFnan
aFnan
aFnan
aI60
aI15
aI60
aI30
aI30
aI60
aI60
aI30
aI60
aI25
aI60
aFnan
aFnan
aFnan
aFnan
aFnan
aFnan
aFnan
aFnan
aFnan
aFnan
aFnan
aFnan
aFnan
aFnan
aFnan
aFnan
aFnan
aFnan
aFnan
aFnan
aFnan
aI120
aI30
aI60
aI30
aI60
aI60
aI60
aFnan
aFnan
aFnan
aFnan
aFnan
aFnan
aFnan
aFnan
aFnan
aFnan
aFnan
aFnan
aFnan
aFnan
aFnan
aFnan
aFnan
aFnan
aFnan
aFnan
aFnan
aFnan
aI120
aI50
aI60
aI30
aI30
aI60
aI60
aI30
aI60
aI60
aFnan
aFnan
aFnan
aFnan
aFnan
aFnan
aFnan
aFnan
aFnan
aFnan
aFnan
aFnan
aFnan
aFnan
aFnan
aFnan
aFnan
aI11
aI30
aI30
aI15
aI15
aI30
aI40
aI30
aI60
aI60
aFnan
aFnan
aFnan
aFnan
aFnan
aFnan
aFnan
aFnan
aFnan
aFnan
aFnan
aFnan
aFnan
aFnan
aFnan
aFnan
aFnan
aFnan
aFnan
aFnan
aFnan
aFnan
aFnan
aFnan
aI15
aI42
aI15
aI30
aI60
aI60
aI30
aI30
aFnan
aFnan
aFnan
aFnan
aFnan
aFnan
aFnan
aFnan
aFnan
aFnan
aFnan
aFnan
aFnan
aFnan
aFnan
aFnan
aFnan
aFnan
aFnan
aFnan
aI60
aI30
aI30
aI30
aI30
aI60
aI60
aFnan
a(dp3869
Vdays
p3870
(lp3871
VMonday
p3872
aVTuesday
p3873
aVWednesday
p3874
aVThursday
p3875
aVFriday
p3876
asVtime
p3877
V15:00
p3878
sa(dp3879
Vdays
p3880
(lp3881
VTuesday
p3882
asVtime
p3883
V23:00
p3884
sa(dp3885
Vdays
p3886
(lp3887
VWednesday
p3888
asVtime
p3889
V21:00
p3890
sa(dp3891
Vdays
p3892
(lp3893
VWednesday
p3894
asVtime
p3895
V21:00
p3896
sa(dp3897
Vdays
p3898
(lp3899
VThursday
p3900
asVtime
p3901
V20:30
p3902
sa(dp3903
Vdays
p3904
(lp3905
VMonday
p3906
asVtime
p3907
V23:00
p3908
sa(dp3909
Vdays
p3910
(lp3911
VTuesday
p3912
asVtime
p3913
V22:00
p3914
sa(dp3915
Vdays
p3916
(lp3917
VMonday
p3918
aVTuesday
p3919
aVWednesday
p3920
aVThursday
p3921
aVFriday
p3922
asVtime
p3923
V17:15
p3924
sa(dp3925
Vdays
p3926
(lp3927
sVtime
p3928
V
p3929
sa(dp3930
Vdays
p3931
(lp3932
VWednesday
p3933
asVtime
p3934
V22:00
p3935
sa(dp3936
Vdays
p3937
(lp3938
VMonday
p3939
aVTuesday
p3940
aVWednesday
p3941
aVThursday
p3942
aVFriday
p3943
asVtime
p3944
V19:30
p3945
saFnan
a(dp3946
Vdays
p3947
(lp3948
VMonday
p3949
aVTuesday
p3950
aVWednesday
p3951
aVThursday
p3952
aVFriday
p3953
asVtime
p3954
V19:00
p3955
sa(dp3956
Vdays
p3957
(lp3958
VMonday
p3959
asVtime
p3960
V22:00
p3961
sa(dp3962
Vdays
p3963
(lp3964
VFriday
p3965
asVtime
p3966
g3929
sa(dp3967
Vdays
p3968
(lp3969
VWednesday
p3970
asVtime
p3971
V19:00
p3972
sa(dp3973
Vdays
p3974
(lp3975
VMonday
p3976
aVTuesday
p3977
aVWednesday
p3978
aVThursday
p3979
aVFriday
p3980
asVtime
p3981
V17:00
p3982
sa(dp3983
Vdays
p3984
(lp3985
sVtime
p3986
g3929
sa(dp3987
Vdays
p3988
(lp3989
VThursday
p3990
asVtime
p3991
V21:00
p3992
sa(dp3993
Vdays
p3994
(lp3995
VWednesday
p3996
asVtime
p3997
V20:00
p3998
sa(dp3999
Vdays
p4000
(lp4001
VMonday
p4002
asVtime
p4003
V20:00
p4004
sa(dp4005
Vdays
p4006
(lp4007
VThursday
p4008
asVtime
p4009
V21:30
p4010
sa(dp4011
Vdays
p4012
(lp4013
VSunday
p4014
asVtime
p4015
V22:30
p4016
sa(dp4017
Vdays
p4018
(lp4019
VTuesday
p4020
asVtime
p4021
V22:00
p4022
sa(dp4023
Vdays
p4024
(lp4025
VFriday
p4026
asVtime
p4027
V21:00
p4028
sa(dp4029
Vdays
p4030
(lp4031
VWednesday
p4032
asVtime
p4033
V21:00
p4034
sa(dp4035
Vdays
p4036
(lp4037
VMonday
p4038
asVtime
p4039
V21:00
p4040
sa(dp4041
Vdays
p4042
(lp4043
VSaturday
p4044
asVtime
p4045
g3929
sa(dp4046
Vdays
p4047
(lp4048
VThursday
p4049
asVtime
p4050
V12:00
p4051
sa(dp4052
Vdays
p4053
(lp4054
VTuesday
p4055
asVtime
p4056
V20:00
p4057
sa(dp4058
Vdays
p4059
(lp4060
VSaturday
p4061
asVtime
p4062
V13:00
p4063
sa(dp4064
Vdays
p4065
(lp4066
sVtime
p4067
g3929
sa(dp4068
Vdays
p4069
(lp4070
VMonday
p4071
asVtime
p4072
V22:00
p4073
sa(dp4074
Vdays
p4075
(lp4076
VThursday
p4077
asVtime
p4078
V23:02
p4079
sa(dp4080
Vdays
p4081
(lp4082
VWednesday
p4083
asVtime
p4084
V22:00
p4085
saFnan
aFnan
aFnan
aFnan
aFnan
aFnan
aFnan
a(dp4086
Vdays
p4087
(lp4088
VTuesday
p4089
asVtime
p4090
V20:00
p4091
sa(dp4092
Vdays
p4093
(lp4094
VSunday
p4095
asVtime
p4096
V21:00
p4097
sa(dp4098
Vdays
p4099
(lp4100
VTuesday
p4101
asVtime
p4102
V21:30
p4103
sa(dp4104
Vdays
p4105
(lp4106
VSunday
p4107
asVtime
p4108
g3929
sa(dp4109
Vdays
p4110
(lp4111
VMonday
p4112
aVTuesday
p4113
aVWednesday
p4114
aVThursday
p4115
asVtime
p4116
V01:35
p4117
sa(dp4118
Vdays
p4119
(lp4120
VThursday
p4121
asVtime
p4122
V21:00
p4123
saFnan
aFnan
aFnan
aFnan
aFnan
aFnan
aFnan
aFnan
aFnan
aFnan
aFnan
aFnan
aFnan
aFnan
aFnan
aFnan
aFnan
aFnan
aFnan
aFnan
aFnan
aFnan
aFnan
a(dp4124
Vdays
p4125
(lp4126
VMonday
p4127
aVTuesday
p4128
aVWednesday
p4129
aVThursday
p4130
aVFriday
p4131
asVtime
p4132
V11:00
p4133
sa(dp4134
Vdays
p4135
(lp4136
VMonday
p4137
asVtime
p4138
V18:00
p4139
sa(dp4140
Vdays
p4141
(lp4142
VWednesday
p4143
asVtime
p4144
V22:00
p4145
sa(dp4146
Vdays
p4147
(lp4148
VTuesday
p4149
asVtime
p4150
V22:30
p4151
sa(dp4152
Vdays
p4153
(lp4154
VSunday
p4155
asVtime
p4156
V22:00
p4157
sa(dp4158
Vdays
p4159
(lp4160
sVtime
p4161
g3929
sa(dp4162
Vdays
p4163
(lp4164
VMonday
p4165
asVtime
p4166
V21:00
p4167
sa(dp4168
Vdays
p4169
(lp4170
VFriday
p4171
asVtime
p4172
V20:00
p4173
sa(dp4174
Vdays
p4175
(lp4176
VWednesday
p4177
asVtime
p4178
V22:00
p4179
sa(dp4180
Vdays
p4181
(lp4182
VThursday
p4183
asVtime
p4184
V22:30
p4185
sa(dp4186
Vdays
p4187
(lp4188
VTuesday
p4189
asVtime
p4190
V08:00
p4191
saFnan
aFnan
aFnan
aFnan
aFnan
aFnan
aFnan
aFnan
aFnan
aFnan
aFnan
aFnan
aFnan
aFnan
aFnan
aFnan
aFnan
aFnan
aFnan
aFnan
aFnan
a(dp4192
Vdays
p4193
(lp4194
VMonday
p4195
asVtime
p4196
V20:00
p4197
sa(dp4198
Vdays
p4199
(lp4200
VSaturday
p4201
asVtime
p4202
V20:30
p4203
sa(dp4204
Vdays
p4205
(lp4206
VWednesday
p4207
asVtime
p4208
V19:30
p4209
sa(dp4210
Vdays
p4211
(lp4212
VMonday
p4213
asVtime
p4214
V22:00
p4215
sa(dp4216
Vdays
p4217
(lp4218
VSunday
p4219
asVtime
p4220
V20:00
p4221
sa(dp4222
Vdays
p4223
(lp4224
VWednesday
p4225
asVtime
p4226
V22:00
p4227
sa(dp4228
Vdays
p4229
(lp4230
VTuesday
p4231
asVtime
p4232
V21:00
p4233
saFnan
aFnan
aFnan
aFnan
aFnan
aFnan
aFnan
aFnan
aFnan
aFnan
aFnan
aFnan
aFnan
aFnan
aFnan
aFnan
aFnan
aFnan
aFnan
aFnan
aFnan
aFnan
a(dp4234
Vdays
p4235
(lp4236
VMonday
p4237
asVtime
p4238
V20:00
p4239
sa(dp4240
Vdays
p4241
(lp4242
VWednesday
p4243
aVSunday
p4244
asVtime
p4245
V22:00
p4246
sa(dp4247
Vdays
p4248
(lp4249
VMonday
p4250
asVtime
p4251
V22:00
p4252
sa(dp4253
Vdays
p4254
(lp4255
VWednesday
p4256
asVtime
p4257
V22:30
p4258
sa(dp4259
Vdays
p4260
(lp4261
VWednesday
p4262
asVtime
p4263
g3929
sa(dp4264
Vdays
p4265
(lp4266
VWednesday
p4267
asVtime
p4268
V21:00
p4269
sa(dp4270
Vdays
p4271
(lp4272
VMonday
p4273
asVtime
p4274
V22:00
p4275
sa(dp4276
Vdays
p4277
(lp4278
VSaturday
p4279
asVtime
p4280
V23:00
p4281
sa(dp4282
Vdays
p4283
(lp4284
VSaturday
p4285
asVtime
p4286
V08:00
p4287
sa(dp4288
Vdays
p4289
(lp4290
VFriday
p4291
asVtime
p4292
V22:00
p4293
saFnan
aFnan
aFnan
aFnan
aFnan
aFnan
aFnan
aFnan
aFnan
aFnan
aFnan
aFnan
aFnan
aFnan
aFnan
aFnan
aFnan
a(dp4294
Vdays
p4295
(lp4296
sVtime
p4297
g3929
sa(dp4298
Vdays
p4299
(lp4300
VWednesday
p4301
asVtime
p4302
V22:00
p4303
sa(dp4304
Vdays
p4305
(lp4306
VTuesday
p4307
asVtime
p4308
V19:00
p4309
sa(dp4310
Vdays
p4311
(lp4312
VThursday
p4313
asVtime
p4314
V16:00
p4315
sa(dp4316
Vdays
p4317
(lp4318
VThursday
p4319
asVtime
p4320
V18:30
p4321
sa(dp4322
Vdays
p4323
(lp4324
VThursday
p4325
asVtime
p4326
V22:00
p4327
sa(dp4328
Vdays
p4329
(lp4330
sVtime
p4331
g3929
sa(dp4332
Vdays
p4333
(lp4334
VWednesday
p4335
asVtime
p4336
V20:00
p4337
sa(dp4338
Vdays
p4339
(lp4340
sVtime
p4341
g3929
sa(dp4342
Vdays
p4343
(lp4344
VSunday
p4345
asVtime
p4346
V22:00
p4347
saFnan
aFnan
aFnan
aFnan
aFnan
aFnan
aFnan
aFnan
aFnan
aFnan
aFnan
aFnan
aFnan
aFnan
aFnan
aFnan
aFnan
aFnan
aFnan
aFnan
aFnan
aFnan
aFnan
aFnan
a(dp4348
Vdays
p4349
(lp4350
VMonday
p4351
aVTuesday
p4352
aVWednesday
p4353
aVThursday
p4354
asVtime
p4355
V17:30
p4356
sa(dp4357
Vdays
p4358
(lp4359
VSunday
p4360
asVtime
p4361
V21:00
p4362
sa(dp4363
Vdays
p4364
(lp4365
VSunday
p4366
asVtime
p4367
V11:00
p4368
sa(dp4369
Vdays
p4370
(lp4371
VTuesday
p4372
asVtime
p4373
V20:30
p4374
sa(dp4375
Vdays
p4376
(lp4377
VSaturday
p4378
asVtime
p4379
g3929
sa(dp4380
Vdays
p4381
(lp4382
VMonday
p4383
asVtime
p4384
V21:00
p4385
sa(dp4386
Vdays
p4387
(lp4388
VWednesday
p4389
asVtime
p4390
V22:00
p4391
sa(dp4392
Vdays
p4393
(lp4394
VFriday
p4395
asVtime
p4396
V22:30
p4397
saFnan
aFnan
aFnan
aFnan
aFnan
aFnan
aFnan
aFnan
aFnan
aFnan
aFnan
aFnan
aFnan
aFnan
aFnan
aFnan
aFnan
aFnan
aFnan
aFnan
a(dp4398
Vdays
p4399
(lp4400
VThursday
p4401
asVtime
p4402
V21:30
p4403
sa(dp4404
Vdays
p4405
(lp4406
VFriday
p4407
asVtime
p4408
V20:00
p4409
sa(dp4410
Vdays
p4411
(lp4412
VMonday
p4413
asVtime
p4414
V22:30
p4415
sa(dp4416
Vdays
p4417
(lp4418
VTuesday
p4419
asVtime
p4420
V21:00
p4421
sa(dp4422
Vdays
p4423
(lp4424
VMonday
p4425
aVTuesday
p4426
aVWednesday
p4427
aVThursday
p4428
aVFriday
p4429
asVtime
p4430
V19:00
p4431
sa(dp4432
Vdays
p4433
(lp4434
VMonday
p4435
aVTuesday
p4436
aVWednesday
p4437
aVThursday
p4438
aVFriday
p4439
asVtime
p4440
V20:00
p4441
sa(dp4442
Vdays
p4443
(lp4444
VSunday
p4445
asVtime
p4446
V20:00
p4447
saFnan
atp4448
bag19
(g20
(I0
tp4449
g22
tp4450
Rp4451
(I1
(I1
I229
tp4452
g29
I00
(lp4453
VRunning
p4454
aVTo Be Determined
p4455
aVRunning
p4456
aVRunning
p4457
aVEnded
p4458
aVRunning
p4459
aVEnded
p4460
aVEnded
p4461
aVEnded
p4462
aVEnded
p4463
aVEnded
p4464
aI429
aVRunning
p4465
aVRunning
p4466
aVRunning
p4467
aVEnded
p4468
aVRunning
p4469
aVEnded
p4470
aVEnded
p4471
aVEnded
p4472
aVEnded
p4473
aVEnded
p4474
aVEnded
p4475
aVEnded
p4476
aVEnded
p4477
aVEnded
p4478
aVEnded
p4479
aVEnded
p4480
aVEnded
p4481
aVEnded
p4482
aVRunning
p4483
aVEnded
p4484
aVEnded
p4485
aVRunning
p4486
aVEnded
p4487
aI429
aI429
aI429
aI429
aI429
aI429
aI429
aVEnded
p4488
aVRunning
p4489
aVRunning
p4490
aVRunning
p4491
aVRunning
p4492
aVEnded
p4493
aI429
aI429
aI429
aI429
aI429
aI429
aI429
aI429
aI429
aI429
aI429
aI429
aI429
aI429
aI429
aI429
aI429
aI429
aI429
aI429
aI429
aI429
aI429
aVRunning
p4494
aVRunning
p4495
aVEnded
p4496
aVEnded
p4497
aVEnded
p4498
aVEnded
p4499
aVEnded
p4500
aVEnded
p4501
aVEnded
p4502
aVEnded
p4503
aVEnded
p4504
aI429
aI429
aI429
aI429
aI429
aI429
aI429
aI429
aI429
aI429
aI429
aI429
aI429
aI429
aI429
aI429
aI429
aI429
aI429
aI429
aI429
aVRunning
p4505
aVEnded
p4506
aVEnded
p4507
aVEnded
p4508
aVEnded
p4509
aVEnded
p4510
aVEnded
p4511
aI429
aI429
aI429
aI429
aI429
aI429
aI429
aI429
aI429
aI429
aI429
aI429
aI429
aI429
aI429
aI429
aI429
aI429
aI429
aI429
aI429
aI429
aVRunning
p4512
aVRunning
p4513
aVEnded
p4514
aVEnded
p4515
aVEnded
p4516
aVEnded
p4517
aVEnded
p4518
aVEnded
p4519
aVEnded
p4520
aVEnded
p4521
aI429
aI429
aI429
aI429
aI429
aI429
aI429
aI429
aI429
aI429
aI429
aI429
aI429
aI429
aI429
aI429
aI429
aVEnded
p4522
aVEnded
p4523
aVEnded
p4524
aVRunning
p4525
aVRunning
p4526
aVRunning
p4527
aVEnded
p4528
aVTo Be Determined
p4529
aVEnded
p4530
aVEnded
p4531
aI429
aI429
aI429
aI429
aI429
aI429
aI429
aI429
aI429
aI429
aI429
aI429
aI429
aI429
aI429
aI429
aI429
aI429
aI429
aI429
aI429
aI429
aI429
aI429
aVRunning
p4532
aVEnded
p4533
aVEnded
p4534
aVEnded
p4535
aVEnded
p4536
aVTo Be Determined
p4537
aVRunning
p4538
aVRunning
p4539
aI429
aI429
aI429
aI429
aI429
aI429
aI429
aI429
aI429
aI429
aI429
aI429
aI429
aI429
aI429
aI429
aI429
aI429
aI429
aI429
aVEnded
p4540
aVEnded
p4541
aVEnded
p4542
aVEnded
p4543
aVEnded
p4544
aVRunning
p4545
aVEnded
p4546
aI429
atp4547
bag19
(g20
(I0
tp4548
g22
tp4549
Rp4550
(I1
(I6
I229
tp4551
g29
I00
(lp4552
V<p><i><b>"The Bill Cunningham Show"</b>,</i> Tribune Broadcasting's nationally syndicated daytime talk show launched in 2011, and has made a difference in the lives of viewers, helping to resolve conflicts and mend relationships, while making viewers laugh and giving them hope. The Bill Cunningham Show's guests come to us to get to the bottom of an issue, find out the truth, reveal a secret, reunite with a family member or confront a relationship issue head on. The show also has a fun side. With Bill's witty commentary and "Billisms," his audience is getting to know his humor by chanting his catch phrase, "let's put the cheese on the cracker."</p>
p4553
aV<p><b>Six Degrees of Everything</b> is a fast-paced, comedic show hosted by Benny and Rafi Fine, who spend each week proving that anything in the world \u2014 and we mean anything \u2014 can be connected in six degrees. Using every tool in their belt, the guys take viewers down the comedic rabbit hole, uncovering fascinating facts and connecting our world in hilarious, inventive ways.</p>
p4554
aV<p><b>Toddlers &amp; Tiaras</b> showcases the competitive world of pageants for children and gives viewers a glimpse of what a stage mom really is, and the pressures children face all in the name of beauty and trophies.</p>
p4555
aV<p>From the mind of pro-skateboarder, Rob Dyrdek, come this rad new series based on Dyrdek's younger years as a skateboarder packed with a whole lot of awesome!</p><p>Lil Rob and his wacky crew of energetic skateboarders, the Wild Grinders, are all about having fun and grinding their way through Sprawl City! Whether it's filming stunts on homemade ramps or the local skate park, the Wild Grinders always seem to come up against their "evil nemesis" Stubford Hucksterball, clumsy skater and son of local industrialist, Track Hucksterball of Hucksterball Industries. No matter what the adventure, the Wild Grinders have what it takes to find their way out of trouble and make it home in time for dinner.</p>
p4556
aV<p>The bizarre adventures of a group of bumbling detectives.</p>
p4557
aV<p><b>My Super Sweet 16 </b>follows a series of 15 year old girls as they rigorously plan, prep, and finally partake in their sweet 16 party. Will the event be a success? Or a stinker? Will bossy parents, friends, or greedy siblings stand in their path of a dream celebration? Sometimes sixteen... ain't so sweet.</p>
p4558
aV<p>With never-before-granted access to Bristol's real-life experiences, the show follows her everyday life as a single mother living under intense media scrutiny that comes from her lineage as the daughter of former Alaska governor and vice presidential candidate Sarah Palin. The series follows Bristol's move from Wasilla to Los Angeles with Tripp and her sister Willow, and back to Alaska as she deals with parenting and disciplining her toddler without Tripp's father. Giving viewers a unique look at the difficult decisions she has to make for her relationships, career and family, <b>Bristol Palin: Life's a Tripp</b> will capture how these challenges test her resolve as she single-handedly writes the next chapter in her and Tripp's life.</p>
p4559
aV<p><b>The Adventures of Paddy the Pelican</b> is an American animated television series that debuted on local stations in Chicago during the 1950s. It is exceedingly rare, but has gained some fame for appearing on Jerry Beck's Worst Cartoons Ever. On the DVD, Beck states that he has not found any evidence that this particular animated adaptation was aired on TV, although there is evidence that the Paddy the Pelican character began in 1950 as a local TV puppet show on Chicago's WENR-TV (now WLS-TV). Paddy's adventures were presented in comic strip drawings done by Sam Singer. This show appeared on the ABC network in the fall of 1951, but for only one month. The show aired on the ABC television network weekdays between 5:15 and 5:30 pm from September 11, 1950 to October 13, 1950. Singer had also started producing a newspaper, Paddy Pelican Junior Journal. The animated episodes currently in existence all have copyright dates of 1954.</p>
p4560
aV<p>An animated sitcom about 2 cousins doing random acts of gross-up.</p>
p4561
aV<p>This docu-series follows Paris Hilton and the people in her life through ups and downs, loves gained and lost, marriages, kids, divorce, and more. Behind the Hollywood glamour, red carpets, photo shoots, and fabulous parties stands a strong woman who's determined to make a new life for herself.</p>
p4562
aV<p>The Australian version of the reality series where celebrities have to master the art of diving as they compete for the title of <b>Celebrity Splash!</b> Champion.</p>
p4563
aFnan
aV<p><b>A Current Affair</b> covers the realms of politics, crime, human rights, science, technology, celebrities and entertainment - all investigated by a dedicated team.</p>
p4564
aV<p>There are more than 7 billion people in the world. Only 2.2% of them are smart enough to be called "Genius". This is not a show about those people. <b>Almost Genius</b> is a self-contained, half-hour comedy series that celebrates the people, places and things that try so hard to succeed but come up just a bit short. Hosted by April Richardson and Chris Fairbanks, the show features comedians and performers digitally inserted into viral videos to comment on and congratulate people for their bravery and ingenuity in snatching defeat from the jaws of victory. But Almost Genius doesn't mock, because as everyone knows, almost is awesome... and genius.</p>
p4565
aV<p>On <b>React: Do They Know It?</b> each episode of this web series questions teens or adults on their knowledge to see if they can name a actor, singer, song, game etc.</p>
p4566
aV<p>Whether it's a birthday party, a graduation, or any milestone celebration, each week <b>Outrageous Kid Parties</b> documents parents as they go beyond their means to give their child a huge eye popping, jaw dropping fete. With high expectations, they force other family members, friends and party planners to go to extreme measures to ensure that their fabulous party goes down in history as an event never to be forgotten.</p>
p4567
aV<p>After their original evening panel show The Five moved to primetime, Fox News is bringing back the roundtable discussion with a new group of hosts. <b>The Fox News Specialists</b> will feature Eric Bolling, Kat Timpf and Eboni Williams along with two guests every weekday to discuss the latest stories.</p>
p4568
aV<p>The show follows the lives of Orange and friends; Pear, Passion Fruit, Midget Apple, Marshmellow, Grandpa Lemon and the antagonistic Grapefruit. The main setting takes place at a grocery store named Daneboe's (a reference to creator Dane Boedigheimer) which is watched over by employee Nerville (played by internet personality Toby Turner). There is no one-track premise for the show but instead focuses on the surreal misadventures of the fruit as they face evil vegetables, alien broccoli and other weird characters as well.</p>
p4569
aV<p>Bravo's "The Real Housewives" franchise presents a slice of life amongst affluent, educated women, some raising kids, some driving careers, all interacting with friends and family as determined by the unwritten social rules of the Beltway. With the franchise's expansion to our nation's capital, <b>The Real Housewives of D.C.</b> introduces five intriguing women whose relationships with each other, and with the city in which they live, are a compelling combination to explore the nexus of politics, society, and even race, as well as how the proximity to political power dictates where one fits within Beltway society.</p>
p4570
aV<p>Celebrities go head-to-head with civilians who hate them to win their "haters" over.</p>
p4571
aV<p><b>AwesomenessTV</b> is an American sketch-comedy reality series that airs on Nickelodeon Monday Nights at 8pm. It began airing episodes on July 1, 2013 and is created by Brian Robbins. The 1st Season contains 20 episodes.</p>
p4572
aV<p><i><b>"Single White Spenny"</b></i> is a coming-of-age series; unfortunately, Spenny is 36 years old! At his recent divorce hearing, Spenny's ex-wife accused him of being an immature, emotionally inept man-child who lacked the skills to ever have a functional relationship. Outraged by these accusations, Spenny sets out to prove her wrong\u2026which is slightly complicated by the fact that she was right. Aiding him in his dating pursuits is his best friend Chelsea, who is relationship-challenged herself. And then there's Spenny's self-centred mother, who loves her son to the best of her limited ability. Spenny makes his living inventing novelty gift items \u2014 his claim to fame was a glossy coffee-table book entitled "The Book of Poop."</p>
p4573
aV<p>E! cameras take us inside the Lohans' lives, following matriarch and manager Dina as she focuses on launching the music and acting career of her other daughter, Ali, while keeping on top of Lindsay's busy schedule</p>
p4574
aV<p><i><b>"Little Miss Perfect"</b></i> is a journey into the world of children's pageants. Each episode follows two families as they practice and primp\u2014all leading up to the stress and joy of competing for the title <i>Little Miss Perfect</i>. Featuring Michael Galanes, national pageant director for more than ten years.</p>
p4575
aV<p><b>Here Comes Honey Boo Boo</b> follows Alana Thompson, the outspoken 6-year-old beauty queen from TLC's Toddlers &amp; Tiaras. Viewers can take an inside look at the family home in rural Georgia, where the Thompson clan indulges in their favorite pastimes, such as free-wheeling through mud pits and picking up road kill for grilling.</p>
p4576
aV<p>The series follows Tinsley Mortimer, New York's most talked-about "Park Avenue Princess", and her circle of often-controversial friends.</p>
p4577
aV<p><b>The Swan</b> offers ugly ducklings to transforms themselves into a beautiful swan. It offers women the incredible opportunity to undergo physical, mental and emotional transformations and follows them through the process. This groundbreaking idea culminates in a pageant in which one woman will be crowned "The Ultimate Swan." Each of the contestants will be assigned a team of specialists -- a coach, therapist, trainer, cosmetic surgeon, dentist and stylist -- that will work together to design the perfect individually-tailored program. The final reveal will be especially dramatic because the contestants will not be permitted to see themselves in a mirror during the three-month transformation process.</p>
p4578
aV<p>The series follows the adventures of four teenagers fighting to safeguard Capital City from the vengeful wrath of insane and disgruntled B-Movie director, Klaus Von Steinhauer, who possesses the ability to bring his cinematic monsters to life. Over the course of the series, various story arcs occur that expand the series cast and city locations. Each week sees the teens customize common household objects into useful weapons to fight against monstrous creations.</p>
p4579
aV<p><i><b>"Tickety Toc"</b></i> is a British and South Korean animated CGI series, produced by The Foundation, part of Zodiak Media Group and FunnyFlux Entertainment. The first series consist of 52 episodes, each 11 minutes long, but is shown as twenty-six blocks, each containing two episodes in some countries. The first series was acquired by Nick Jr. as part of a global deal. <i>Tickety Toc</i> aired across Asia from 19 April 2012 and was subsequently rolled out internationally with localised dubs. <i>Tickety Toc</i> aired for the first time on British TV on 23 April 2012 as the number 1 Nick Jr. show and became the number 1 daytime show on Nick Jr. US for the first 3 months when it launched 10 September 2012. In addition to the Nick Jr. global acquisition, the show has been sold to free-to-air television partners internationally. Launching on Channel 5's Milkshake slot 1 November 2012, other broadcasters who have picked up the 52-episode series include TG4 in Ireland and Family Channel in Canada. Jolly Roger (Amusement Rides LTD) made a kiddie ride based on Pufferty the train, featuring the main characters Tommy &amp; Tallulah. It features a mirror so you can see yourself on Pufferty, the Tickety Toc theme tune and 4 funny sound effects. In the US, <i>Tickety Toc</i> originally aired on Nickelodeon's preschool block, but was later burned off to Nick Jr..</p>
p4580
aV<p>Billed as a comedy/reality hybrid, this offering from FOX takes a look into the life of buxom blonde Lauren Jones as she moves from LA to Tyler, Texas in an effort to transform herself from swimsuit model to news anchor of KYTX Channel 19. The Tyler news station's manager wants her to help turnaround his dismal ratings.</p>
p4581
aV<p>Cartoon Network's fresh take on <b>Ben 10</b> will center upon a new animated series re-introducing the energetic, fun-loving, 10-year-old Ben Tennyson. At the core of the new Ben is a healthy serving of action, excitement, and all-around fun. Featuring many new and fan-favorite aliens, the series kicks off with the adventures of Ben, his cousin Gwen, and Grandpa Max as they travel the country during summer vacation. When Ben finds the mysterious Omnitrix, a world of alien superpowers opens up to him.</p>
p4582
aV<p>Casper's Scare School is an American\u2013French\u2013Indian animated series based on the computer animated film Casper's Scare School starring Casper the Friendly Ghost. The series aired on Cartoon Network in 2009, and a second season aired in 2012 with a new opening sequence, a new voice cast and a slightly different CGI animation style.</p>
p4583
aV<p>An ex-state trooper and his team perform sting operations throughout the Southern United States.</p>
p4584
aV<p>A new weekly talk show is coming to Lifetime, hosted by the renowned stylist and designer, Rachel Zoe. Straight from Zoe's fashion empire headquarters on Melrose Avenue, <i><b>"Fashionably Late with Rachel Zoe"</b></i> gives viewers the definitive inside look into what's hot and what's not in fashion, beauty and pop culture. Joined by fashion insider and Harper's Bazaar Editor-At-Large Derek Blasberg, Zoe's husband Rodger Berman, and their celebrity friends, each episode will be a fun, glamour-packed look at the world around us through the lens of fashion. The half-hour talker premieres Thursday, September 24, at 10:30pm ET/PT, following all-new episodes of "Project Runway."<br><br>"Fashionably Late with Rachel Zoe" is produced by Hudsun Media with Michael Rourke, Kay O'Connell, Rachel Zoe and Rodger Berman serving as executive producers. Eli Lehrer, Mary Donahue and David Hillman of Lifetime also executive produce. A total of eight episodes have been ordered for this season, adding to Lifetime's roster of fashion-centric programming that includes Emmy nominated "Project Runway," "Project Runway All Stars" and upcoming new series, "Project Runway Junior."</p>
p4585
aV<p>Features a group of researchers who investigate reports of extreme and dangerous supernatural activity across the globe.</p>
p4586
aFnan
aFnan
aFnan
aFnan
aFnan
aFnan
aFnan
aV<p>A behind the scenes look into the private life of Lara Bingle, from her perspective.</p>
p4587
aV<p>The Kardashians, the family at the center of E!'s most-watched series, reveal all the special moments and events in Los Angeles and Europe leading up to Kim's walk down the aisle and a personal look at the journey to the altar from the newlyweds themselves.</p>
p4588
aV<p>Tommy heads to New York City with Scarlet as they look to make it big, but will he make a good impression with the new roommates?</p>
p4589
aV<p>An apocalyptic TV series of survival when a deadly virus from a meteor turns the earth into a zombie infested world no one could have ever imagined.</p>
p4590
aV<p>Currently in its 13th season on NBC, <b>Last Call with Carson Daly</b> continues to push the boundaries of late night television. Each night, Last Call hits the streets, taking the entire show on location and bringing viewers along for the ride. Host Carson Daly introduces his audience to the emerging artists, stories and music you simply won't find anywhere else. In recent years, Last Call has garnered acclaim for its gritty documentary style, emphasis on great storytelling and status as late night TV's unofficial music tastemaker.</p>
p4591
aV<p>Excitement runs high this season as bothJoanna and Adriana plan their dream weddings, but not everything is smooth sailing as Joanna and Romain disagree about a pre-nuptial agreement and Adriana deals with the aftermath of her friends finding out the truth about her relationship with her fianc. Lea finds new bonds forming and old friendships are put to the test as she tries to prove she is more than just a housewife. Alexia's focus remains on her two sons: Frankie who continues to make strides in his recovery from an automobile accident, and Peter, who is also going through some challenging times in his life. Even though Lisa struggles with fertility issues, she is determined to grow her family and will do whatever it takes to have a baby. Whether strolling down Lincoln Road or sipping mojitos on South Beach, these ladies prove why Miami is one of the sexiest and sultriest cities in the world on <b>The Real Housewives of Miami</b>.</p>
p4592
aFnan
aFnan
aFnan
aFnan
aFnan
aFnan
aFnan
aFnan
aFnan
aFnan
aFnan
aFnan
aFnan
aFnan
aFnan
aFnan
aFnan
aFnan
aFnan
aFnan
aFnan
aFnan
aFnan
aV<p><b>The View</b> is a live, one-hour daily talk show from ABC featuring moderator Whoopi Goldberg, Joy Behar, Candace Cameron Bure, Michelle Collins, Paula Faris and Raven-Symon. It is the original forum in which real women discuss everyday issues, share their opinions and engage in colorful conversations.</p>
p4593
aV<p>SwaySway and Buhdeuce are carefree ducks who fly around in a rocket van delivering bread to their customers. The best friends live together on their home planet, Pondgea, and get into all sorts of "riduckulous" adventures. SwaySway is the leader of the duo and, even though he doesn't always use the best judgment, he's a pro when it comes to flying the van ... and crashing it. Buhdeuce is a klutzy duck, but he's loyal to SwaySway and has a lot of heart. Together, the friends have fun all the time while making bread deliveries on <b>Breadwinners</b>.</p>
p4594
aV<p><b>Kocktails with Khlo</b> is a primetime talk show hosted by Khlo Kardashian. Pilgrim Studios will produce the "hybrid talk series," which will bring celebrity guests and friends together with Kardashian in the kitchen and around the table for an intimate dinner party full of cooking, pop culture, conversation and party games.</p>
p4595
aV<p>Mathew Horne and James Corden host and star in their own sketch show.</p>
p4596
aV<p>Growing up with her overprotective father Hulk Hogan, Brooke wasn't allowed to date or be alone with a boy. But now that's she's turning 20, she's moving out and renting an apartment in Miami Beach, facing new responsibilities and opportunities as she tries to build a career as singer. Despite their recent divorce, both Mom and Dad help Brooke with the move. But will Hulk be able to let go of his little girl?</p>
p4597
aV<p>Five single moms-to-be juggle pregnancy with busy careers and dating on this reality series, which follows their search for Mr. Right.</p>
p4598
aV<p><b>Bromance</b> is an American reality television series that originally aired on MTV from December 29, 2008 until February 2, 2009. It was developed as a spin-off of 'The Hills' and aired one six-episode season. The series focused on Brody Jenner, who appeared in its predecessor, and enlisted nine men to compete for the opportunity to win a close male friendship ("bromance") with him.</p><p>On February 2, 2009, it was revealed on air that Jenner had chosen Luke Verge as his new best friend. Along with Jenner's friendship and a spot in his entourage, Verge won a one year, rent-free stay in a fully furnished penthouse in downtown Los Angeles and a new Scion.</p>
p4599
aV<p><i>Howie Do It </i>is an American/Canadian comedy television series, co-commissioned by NBC and Global, that stars Howie Mandel. The series features practical jokes in the vein of earlier shows like <i>Punk'd</i> or <i>Candid Camera</i> \u2013 the supposed twist being that the cameras are in the open, not hidden as in the other series. Mandel appears, often incognito, in several of the jokes. After the big reveal, Howie then delivers the line "This is Howie Do It!"</p>
p4600
aV<p><b>BAPs</b> pulls back the curtain on an exclusive, privileged and affluent group of African American friends from St. Louis who self-identify as "BAPs"-Black American Princesses and Princes. BAPs follows these lifelong friends who are edgy, educated and sophisticated, and believe being a BAP in today's world is a birthright. Each hour-long episode of "BAPs" delves into the lives and lifestyle of this well-heeled circle of friends.</p>
p4601
aV<p>Basketball superstar and TNT NBA analyst Shaquille O'Neal and friends will round up the week's online video clips, as well as create their own viral videos and comment on and parody current pop culture stories.</p>
p4602
aV<p>Reality style game show/dating program hosted by Madison Michelle that saw each week one person known as a "heart" attached to four "chainees" of the opposite sex, they spent a week together in the Chains of Love house (having to sleep in the same bed and so on). The Heart then decides which of the group they would like to leave until only one chainee remains. The chainee could then decide whether they wanted to see the "heart" again.</p>
p4603
aFnan
aFnan
aFnan
aFnan
aFnan
aFnan
aFnan
aFnan
aFnan
aFnan
aFnan
aFnan
aFnan
aFnan
aFnan
aFnan
aFnan
aFnan
aFnan
aFnan
aFnan
aV<p>Bachelor Nation was heartbroken when fan-favorite Ben Higgins, the charming software salesman, was sent home by Kaitlyn Bristowe on The Bachelorette. Ben saw a "great life" with Kaitlyn, only to have it disappear before him when he was left without a rose. It wasn't easy for Ben to open himself up to love on The Bachelorette because he's been hurt in past relationships. However, now knowing he is capable of being in love and being loved, he is ready to put the heartbreak behind him as he searches for his one true love when he stars in the milestone 20th season of ABC's hit romance reality series, The Bachelor, returning to ABC in January 2016.</p>
p4604
aV<p><b>Marvin Marvin</b> stars internet sensation Lucas Cruikshank, this live-action, multi-camera comedy series follows the adventures of Marvin, an intergalactic alien teenager with special powers who was sent to Earth by his parents in order to protect him from evil invaders on his home planet, Klooton. Under the supervision of his new human parents Bob and Liz, Marvin clumsily tries to adapt to his new life on Earth as a typical American teenager. Helping him navigate Earth's unfamiliar social customs are Marvin's human siblings Teri and Henry and his mischievous grandfather, Pop-Pop. As if teaching Marvin how to act human wasn't hard enough, the family must also conceal his real identity from the world including Teri's curious best friend, Brianna.</p>
p4605
aV<p>A US version of an amazing Japanese game show in which contestants must become pawns in a human game of Tetris by quickly maneuvering their bodies through strangely-shaped holes in a moving wall.</p>
p4606
aV<p>A look at the lives and loves of employees and clients of a Los Angeles tanning salon.</p>
p4607
aV<p>The show follows 12 engaged women who are competing for the wedding of their dreams and their dream plastic surgery procedure. Each women would have to complete a plastic surgery wish list. The women would have to complete wedding theme challenges in order to win the surgery of her choice. The winner of the week's challenge will get one plastic surgery procedure from her wish list.</p>
p4608
aV<p>Follow the local folk of the Smoky Mountains who strike out each summer in search of the most valuable natural treasure - wild American ginseng.</p>
p4609
aV<p>Three-part series exploring the lives of some of the UK's biggest families.</p>
p4610
aFnan
aFnan
aFnan
aFnan
aFnan
aFnan
aFnan
aFnan
aFnan
aFnan
aFnan
aFnan
aFnan
aFnan
aFnan
aFnan
aFnan
aFnan
aFnan
aFnan
aFnan
aFnan
aV<p>Successful and stunning real estate developer JoJo Fletcher, 25, gets a second chance at her happily-ever-after, choosing from twenty-six handsome bachelors. After being devastated last season by a shocking rejection from Bachelor Ben Higgins, who confessed his love to both her and Lauren Bushnell, the Texan beauty is ready to leave that heartbreak behind and write her very own love story as the Bachelorette. JoJo will embark on her own journey to find her soul mate.</p>
p4611
aV<p>Reality series which follows a group of friends living their day-to-day lives in Essex.</p>
p4612
aV<p><b>16 and Pregnant</b> is an MTV reality television series produced by Morgan J. Freeman and Dia Sokol Savage. It follows the stories of pregnant teenage girls in high school dealing with the hardships of teenage pregnancy. Each episode features a different teenage girl, with the episode typically beginning when she is 4 to 8 months into her pregnancy.</p>
p4613
aV<p>Comedian Carlos Mencia mercilessly skewers the current and the cultural, whether in the studio, in the audience, out on the street, or in commercial parodies. Since its premiere in July 2005, <b>Mind of Mencia</b> has relentlessly taken on topics such as ethnic stereotypes, race relations, immigration, war and family. Show favorites include the Dee Dee Dee song, the Sheik Rapper, Judge Carlos and Carlos' brother Joseph. Enter Carlos Mencia's mind, and immerse yourself in his unique, unflinching take on the world.</p>
p4614
aV<p>It's the fast-paced, high-pressure world of car repossession with a team of highly-trained professionals from California's San Fernando Valley. No matter how angry you get, they're taking back your car.</p>
p4615
aV<p><b>Amish Mafia</b> follows those who protect and maintain peace and order within the Amish community.</p>
p4616
aV<p>It's a bike club. It's a brotherhood. For the first time Discovery goes inside the world of motorcycle clubs with the members of San Diego's Laffing Devils. <i><b>"The Devils Ride"</b></i> sports a diverse crew, but one bonded by a commitment to each other and the club. Meet Laffing Devils president Gipsy, who must balance the club's growing ranks with pressure from older members to maintain the status quo. An ex-Marine who served in Iraq, Gipsy credits the club for helping him deal with the emotional scars of war. Then there's club vice-president Billy the Kid, who waits in the wings wondering if he'll have the chance to lead the Laffing Devils. And younger member Snubz breaks all the biker stereotypes with his degree in finance and a full-time corporate job. <i>The Devils Ride</i> finds the Laffing Devils not only in open conflict internally, but also at risk of losing their homebase. The Laffing...</p>
p4617
aV<p>From executive producer Chelsea Handler comes <i>The Josh Wolf Show</i>, CMT's first original late-night show starring comedian Josh Wolf. Best known for his recurring role on <i>Chelsea Lately</i> and host of <i>Shark After Dark</i>, Wolf will examine pop culture through practical sensibility and the lens of everyday people, while showcasing his self-deprecating humor and unique outlook on life.</p>
p4618
aV<p>Baby Daddy\u2018s Melissa Peterman hosts the game show that challenges parents to try to predict their child's next move in an effort to win money for their child's future education.</p>
p4619
aV<p>Prayers are about to be answered with Lifetime's docuseries <b>Preach</b>. With the religious leadership world primarily dominated by men, follows four powerful female leaders who believe God has given them the ability to heal the sick, see the future and rid people of their addictions.</p>
p4620
aFnan
aFnan
aFnan
aFnan
aFnan
aFnan
aFnan
aFnan
aFnan
aFnan
aFnan
aFnan
aFnan
aFnan
aFnan
aFnan
aFnan
aV<p>A spinoff of Nickeldoen's Random! Cartoons, this new animated series is about a 10 year-old boy named Fanboy and his best friend Chum Chum. Together the two combine their love for comic books and their intrepid imagination to get into bizarre adventures.</p>
p4621
aV<p>The show returns with 12 all-new episodes chronicling the zany antics of Nicole "Snooki" Polizzi, Jenni "JWOWW" Farley, their fiancs Jionni LaValle and Roger Mathews, and their new babies. In what is sure to be their wildest season yet, fans will witness the besties as they tackle life milestones including new motherhood and upcoming nuptials.</p><p>Over the past five years, viewers have fallen in love with Snooki and JWOWW, who have become a modern day Laverne and Shirley, watching them go from party girls to motherhood and roommates to wombmates, while trading in beer for baby bottles. Now it's time to say goodbye and see how it all ends.</p>
p4622
aV<p><b>Level Up</b> (formerly <i>Lords of Bad Axe</i>), a Cartoon Network original movie, is a fantastical comedy for the video game age. When three high school gamers, Wyatt (Gaelan Connell), Lyle (Jessie T. Usher) and Dante (Connor del Rio) unwittingly open a portal from an online game into the real world, the trio must put aside their social differences and join forces with classmate Angie (Aimee Carrero) in order to play the game for real and defeat evil. Level Up is created and written by Derek Guiley and David Schneiderman (both credited for Chasing Liberty) and the movie is directed by Peter Lauer (Sons of Tucson, Chuck). The 90-minute movie will premiere on Cartoon Network in fall 2011. Picking up after the events of the movie, the cast will return in a new half-hour series Level Up, which premieres in spring 2012.</p>
p4623
aV<p><b>Supernoobs</b> is a Canadian animated series produced by DHX Media for Teletoon. The series is about four kids who navigate through middle school and fight evil assassins at the same time. It first premiered on Cartoon Network in the United Kingdom and Ireland on November 2, 2015. The series is created by Scott Fellows, who also created Johnny Test. 12-year-old nerdy best friends Kevin, Tyler, Shope and the Roach need to contend with the harrowing halls of their middle school while at the same time fight microcosmic assassins infecting earthlings bent on destroying them and the entire world.</p>
p4624
aV<p>They may not be the brightest monkeys in the universe, but they're certainly the most entertaining. Rocket Monkeys introduces the world to brothers Gus and Wally, two inept monkeys who spend their days wreaking havoc on an intergalactic scale. Featuring voice work by some of Canada's brightest comedy stars, including Mark McKinney (voice of Lord Peel), Sen Cullen (voice of Gus) and introducing Mark Edwards (voice of Wally), Rocket Monkeys explores the bizarre and hilarious cosmic exploits of primate siblings Gus and Wally. Inexplicably charged with carrying out all kinds of important missions, the brothers tend to cause more intergalactic calamity than they could ever prevent. Luckily they have plenty of help from YAY-OK, their dashing and devoted (if slightly outdated) robot.</p>
p4625
aV<p><i><b>"Say Yes to the Dress: Canada"</b></i> is the Canadian version of the popular US format. Bridal stylist, Joseph is on hand helping brides find the perfect dress for their big day. Each episode follows Joseph and Amanda-Lina's Sposa Boutique owner Rochelle as they try and make the bride's dream gown come true.</p>
p4626
aV<p>When a scholarship student is accepted to an elite graduate school program, she encounters a world run by good-looking, rich boys that she has never experienced before. Zoey Taylor (Dawn Morrow) is a talented dancer from a middle-class family who receives a full scholarship to attend the exclusive Ellison University, a school catering to the rich and famous. There, she meets Liam Montgomery (Joseph Almani) and his entourage of wealthy, good-looking friends, known as the F4, who rule the school by fear and coercion. Despite her best efforts to steer clear of the F4, Zoey finds herself entangled with the bad boys in unexpected ways. Can she survive her new school environment?</p><p><b>Boys Before Friends</b>, also known as "Between Boys and Friends", is the highly anticipated American remake of the popular Japanese manga "Hana Yori Dango", which spawned "Boys Over Flowers" starring Lee Min Ho in Korea, Meteor Garden (Taiwan) and similar remakes in other Asian countries. To make the series more accessible to American audiences, the storyline moves from a high school to a very exclusive graduate school and features a much more multiracial cast.</p>
p4627
aV<p>The GC follows the lives of a group of talented and attractive young Maori as they work hard and play even harder in Australia's favourite playground, the glittering Gold Coast. Talented and ambitious, the GC cast are chasing the good life. Some live together, some work together but they all play together.</p>
p4628
aV<p>A reality TV show that documents the life of model and television personality Katie Price. It is the first show to be produced by Price's own production company Pricey Media.</p>
p4629
aV<p>Domenico Nesci is back with his own reality show. Much like the dating show he once competed on, Domenico's also has challenges each episode, sometimes either team or individual, where the winner is awarded a date.</p><p><i><b>"That's Amor!"</b></i> has fifteen American women competing for his love.</p>
p4630
aFnan
aFnan
aFnan
aFnan
aFnan
aFnan
aFnan
aFnan
aFnan
aFnan
aFnan
aFnan
aFnan
aFnan
aFnan
aFnan
aFnan
aFnan
aFnan
aFnan
aFnan
aFnan
aFnan
aFnan
aV<p><b>Cloudy with a Chance of Meatballs</b> is a prequel to the movie, before the food has fallen from the sky. In it, tween Flint Lockwood is an aspiring scientist/inventor, and his best friend, Sam Sparks, the new girl in town, is a wannabe school reporter. The main characters from the original film will also appear in the series including Flint's father, Tim; Steve the monkey; Mayor Shelbourne; teenage babywear model Brent; Earl who isn't a cop yet but a gym teacher; and Manny, who runs the school's audio-visual department.</p>
p4631
aV<p>The highly anticipated new season of Kourtney &amp; Kim Take Miami premieres with two new drama-filled episodes as Kourtney &amp; Kim head to sunny Miami to vamp up their DASH store. Covet or criticize, viewers can't get enough of the addictive and endlessly entertaining phenomenon that is the Kardashian family. Like everything Kardashian - the fashion, the family, the fans and of course, the feuding - Kourtney &amp; Kim Take Miami is icy-hot. Their visit to the 305 is more scorching than ever when the girls are faced with all-new challenges as they continue to build their ever-expanding Kardashian empire.</p>
p4632
aV<p>anet Sheen is an American CGI animated television series. It is a 2010 spin-off of the 2002 series The Adventures of Jimmy Neutron: Boy Genius, it is created by Keith Alcorn and Steve Oedekerk, and based on characters created by John Davis, Keith Alcorn and Steve Oedekerk. The series has been picked up for 26 episodes by Nickelodeon for its first season. Jeff Garcia returned as voice of Sheen Estevez, and Bob Joles and Rob Paulsen are the voice of Nesmith and Doppy, all respectively. The series is animated at Omation Animation Studios, produced by O Entertainment and premiered on Nickelodeon on October 2, 2010 (along with "T.U.F.F. Puppy") in the United States.</p>
p4633
aV<p>Centers on two unemployed car salesmen who realize that they are living in a woman's world, so they decide that to find work again, they must dress as women to get jobs as pharmaceutical reps. By doing so, it makes them better men, husbands and fathers, but also makes them appreciate the sanctuary of their nights at the bar where they can be themselves.</p>
p4634
aV<p>The series follows Southern California's elite rescue task force, <i><b>"SAF3"</b></i> (pronouced "safe") , consists of the cream-of-the-crop from the sea, air, and fire divisions of the Malibu Fire Department. They are the heroes who answer the most challenging calls; specialists who collaborate, coordinate, and initiate daring rescues in the most dangerous venues to save human life, always aware of the harsh reality that one of them may not return.</p>
p4635
aV<p><b>Pawn Stars UK</b> is a British reality television series which debuted on 26 August 2013 on the British version of the History channel. The series is filmed in Sealand, near Chester, United Kingdom, and chronicles the day-to-day activities of pawn shop Regal Pawn, collaboratively run by Mark Andrew Manning, Mark Lever Holland, Marco Peter Holland, Simon Penworth, and Vicki Manning. A spin-off of the prominent American reality television series <i>Pawn Stars</i>, the show's format is similar to the latter show, as it features an array of collectible, antique and unusual items that people sell or pawn.</p>
p4636
aV<p><i><b>"The Internet Ruined My Life" </b></i>exposes the unexpected perils of living in a social media obsessed world. Each half-hour explores what happens to a person when a single tweet, post, or status update backfires and spirals out of control. Told through first person accounts, this series takes stories ripped-from-the-headlines and reveals how people just like you and me inadvertently ruin their lives in one key stroke. <i>The Internet Ruined My Life</i> premieres 9 March 2016 at 10 pm.</p>
p4637
aV<p>Former reality star Brody Jenner hosts this talk show offshoot of his podcast that focuses on love, sex and relationships. Jenner is joined by relationship therapist Mike Dow and actress Stevie Ryan to offer advice to callers who have questions about their relationships and love lives. The panel is joined by guest celebrities who share their opinions on relationship issues that include dealing with exes and the troubles with online dating. Jenner also takes to the streets, encouraging people to reveal their thoughts about the given topics.</p>
p4638
aFnan
aFnan
aFnan
aFnan
aFnan
aFnan
aFnan
aFnan
aFnan
aFnan
aFnan
aFnan
aFnan
aFnan
aFnan
aFnan
aFnan
aFnan
aFnan
aFnan
aV<p>From spoiling and severe punishments to helicopter and new age methods, this is parenting at its most extreme. Each episode gives a candid look at two different households with very unique styles of raising their children and each family strongly believes their methods are superior.</p>
p4639
aV<p><b>Tyler Perry's House of Payne</b> is a comedy series about a multigenerational, working class family who experiences all of life's struggles with faith, love and most importantly humor. Curtis, the uncle and head of the household, has his life and home turned upside down when an unexpected event forces his nephew, CJ, played by Allen Payne, and CJ's kids to move into the house, putting three generations under one roof. This chaotic living situation takes its toll on cranky Pops, who is reluctant to have his routine disturbed. In addition to CJ's family, Curtis and Ella's son, Calvin, a wise-cracking college kid with no money, hangs out at home which makes it impossible for Pops to have any peace and quiet. It soon becomes evident just how wide the generation gap is, as the family tries to find a way to coexist through all of life's hilarious ups and downs.</p>
p4640
aV<p><b>The Inbetweeners</b> takes a comedic look at a group of teenagers navigating high school and charging into adulthood the way everyone does... by taking one step forward and three steps back. Whether humiliating themselves in an effort to impress the girl of their dreams, or mercilessly mocking their friend for driving a bright yellow clunker with a cassette player and one blue door, get ready to embrace the "inbetween".</p>
p4641
aV<p><b>19 Kids and Counting</b> follows Michelle and Bob Duggar as they deal with the challenges of raising a family of ten boys, eight girls and baby Josie Duggar.</p>
p4642
aV<p>When 14-year-old Talia visits her grandmother for the summer and starts spending time in her family's restaurant, she discovers she's got a gift. With the help of her special "salt and pepper sense" and her late father's magical spices, Talia can whip up some truly life changing cuisine and cook just what each customer needs. She's making magic in the kitchen!</p>
p4643
aV<p><b>The Factor</b>, originally titled <i>The O'Reilly Report</i> from 1996 to 1998 and often called <i>The O'Reilly Factor</i>, is an American cable television news and talk show on the Fox News Channel hosted by political commentator Bill O'Reilly, who often discusses current controversial political issues with guests. The Factor is generally prerecorded, though on rare occasions it airs live if breaking news or special events are being covered (e.g. presidential addresses that occur during prime-time). It is usually taped between 5:00 and 7:00 PM Eastern Time and airs weekdays at 8:00 PM and 11:00 PM. The show is recorded "live to tape", meaning that the recording breaks for commercials as if the show was actually on the air while being recorded. Some guests are interviewed before the "live to tape" period and are slotted in the program as appropriate.</p>
p4644
aV<p>A remake of the British series <i>Blackpool</i>, this series is a dramatic musical that follows Ripley Holden, a casino owner in Laughlin, Nevada. When Ripley realizes he needs an investor for the casino, he turns to his rival, Nicky Fontana. When Fontana demands ownership of the casino, Ripley turns him down only to have a body discovered at his casino later.</p>
p4645
aFnan
aVTalk Show
p4646
aVVariety
p4647
aVReality
p4648
aVAnimation
p4649
aVAnimation
p4650
aVReality
p4651
aVReality
p4652
aVAnimation
p4653
aVAnimation
p4654
aVReality
p4655
aVReality
p4656
aFnan
aVNews
p4657
aVReality
p4658
aVReality
p4659
aVReality
p4660
aVTalk Show
p4661
aVAnimation
p4662
aVReality
p4663
aVReality
p4664
aVReality
p4665
aVScripted
p4666
aVReality
p4667
aVReality
p4668
aVReality
p4669
aVReality
p4670
aVReality
p4671
aVScripted
p4672
aVAnimation
p4673
aVReality
p4674
aVAnimation
p4675
aVAnimation
p4676
aVReality
p4677
aVTalk Show
p4678
aVReality
p4679
aFnan
aFnan
aFnan
aFnan
aFnan
aFnan
aFnan
aVReality
p4680
aVReality
p4681
aVScripted
p4682
aVScripted
p4683
aVTalk Show
p4684
aVReality
p4685
aFnan
aFnan
aFnan
aFnan
aFnan
aFnan
aFnan
aFnan
aFnan
aFnan
aFnan
aFnan
aFnan
aFnan
aFnan
aFnan
aFnan
aFnan
aFnan
aFnan
aFnan
aFnan
aFnan
aVTalk Show
p4686
aVAnimation
p4687
aVTalk Show
p4688
aVScripted
p4689
aVReality
p4690
aVReality
p4691
aVReality
p4692
aVReality
p4693
aVReality
p4694
aVTalk Show
p4695
aVReality
p4696
aFnan
aFnan
aFnan
aFnan
aFnan
aFnan
aFnan
aFnan
aFnan
aFnan
aFnan
aFnan
aFnan
aFnan
aFnan
aFnan
aFnan
aFnan
aFnan
aFnan
aFnan
aVReality
p4697
aVScripted
p4698
aVGame Show
p4699
aVReality
p4700
aVReality
p4701
aVReality
p4702
aVReality
p4703
aFnan
aFnan
aFnan
aFnan
aFnan
aFnan
aFnan
aFnan
aFnan
aFnan
aFnan
aFnan
aFnan
aFnan
aFnan
aFnan
aFnan
aFnan
aFnan
aFnan
aFnan
aFnan
aVReality
p4704
aVReality
p4705
aVReality
p4706
aVVariety
p4707
aVReality
p4708
aVReality
p4709
aVReality
p4710
aVTalk Show
p4711
aVGame Show
p4712
aVReality
p4713
aFnan
aFnan
aFnan
aFnan
aFnan
aFnan
aFnan
aFnan
aFnan
aFnan
aFnan
aFnan
aFnan
aFnan
aFnan
aFnan
aFnan
aVAnimation
p4714
aVReality
p4715
aVScripted
p4716
aVAnimation
p4717
aVAnimation
p4718
aVReality
p4719
aVScripted
p4720
aVReality
p4721
aVReality
p4722
aVReality
p4723
aFnan
aFnan
aFnan
aFnan
aFnan
aFnan
aFnan
aFnan
aFnan
aFnan
aFnan
aFnan
aFnan
aFnan
aFnan
aFnan
aFnan
aFnan
aFnan
aFnan
aFnan
aFnan
aFnan
aFnan
aVAnimation
p4724
aVReality
p4725
aVAnimation
p4726
aVScripted
p4727
aVScripted
p4728
aVReality
p4729
aVReality
p4730
aVTalk Show
p4731
aFnan
aFnan
aFnan
aFnan
aFnan
aFnan
aFnan
aFnan
aFnan
aFnan
aFnan
aFnan
aFnan
aFnan
aFnan
aFnan
aFnan
aFnan
aFnan
aFnan
aVReality
p4732
aVScripted
p4733
aVScripted
p4734
aVReality
p4735
aVScripted
p4736
aVNews
p4737
aVScripted
p4738
aFnan
aI1463447317
aI1477139892
aI1479077661
aI1461105387
aI1493051468
aI1503190423
aI1478148990
aI1477426263
aI1494851242
aI1475277658
aI1486069329
aFnan
aI1499891247
aI1477190521
aI1503124026
aI1495251081
aI1500851703
aI1486500079
aI1479486054
aI1475707213
aI1501127244
aI1462066383
aI1478028737
aI1465325845
aI1492886873
aI1481013484
aI1498325507
aI1498254688
aI1474155222
aI1496668564
aI1497186463
aI1451734241
aI1480977808
aI1461839740
aI1494107971
aFnan
aFnan
aFnan
aFnan
aFnan
aFnan
aFnan
aI1493848706
aI1503442148
aI1503444397
aI1498296501
aI1502249777
aI1485113862
aFnan
aFnan
aFnan
aFnan
aFnan
aFnan
aFnan
aFnan
aFnan
aFnan
aFnan
aFnan
aFnan
aFnan
aFnan
aFnan
aFnan
aFnan
aFnan
aFnan
aFnan
aFnan
aFnan
aI1502314384
aI1477777776
aI1495043335
aI1502844205
aI1502849923
aI1485807308
aI1484334102
aI1474316421
aI1483728205
aI1449231301
aI1464211068
aFnan
aFnan
aFnan
aFnan
aFnan
aFnan
aFnan
aFnan
aFnan
aFnan
aFnan
aFnan
aFnan
aFnan
aFnan
aFnan
aFnan
aFnan
aFnan
aFnan
aFnan
aI1494733088
aI1482022754
aI1465853162
aI1500882806
aI1491166373
aI1483213872
aI1499783865
aFnan
aFnan
aFnan
aFnan
aFnan
aFnan
aFnan
aFnan
aFnan
aFnan
aFnan
aFnan
aFnan
aFnan
aFnan
aFnan
aFnan
aFnan
aFnan
aFnan
aFnan
aFnan
aI1502207108
aI1502891286
aI1499784634
aI1503457725
aI1420821992
aI1477196743
aI1463623193
aI1485096386
aI1477312169
aI1480455756
aFnan
aFnan
aFnan
aFnan
aFnan
aFnan
aFnan
aFnan
aFnan
aFnan
aFnan
aFnan
aFnan
aFnan
aFnan
aFnan
aFnan
aI1453684671
aI1459728066
aI1496499313
aI1497443226
aI1460594180
aI1460319734
aI1477631190
aI1458263521
aI1474925034
aI1471291432
aFnan
aFnan
aFnan
aFnan
aFnan
aFnan
aFnan
aFnan
aFnan
aFnan
aFnan
aFnan
aFnan
aFnan
aFnan
aFnan
aFnan
aFnan
aFnan
aFnan
aFnan
aFnan
aFnan
aFnan
aI1491340334
aI1498251103
aI1466462921
aI1475668029
aI1455969700
aI1502576104
aI1459125930
aI1496679337
aFnan
aFnan
aFnan
aFnan
aFnan
aFnan
aFnan
aFnan
aFnan
aFnan
aFnan
aFnan
aFnan
aFnan
aFnan
aFnan
aFnan
aFnan
aFnan
aFnan
aI1483640764
aI1477683583
aI1502774582
aI1497646938
aI1463627692
aI1497310190
aI1462214107
aFnan
aVhttp://www.tvmaze.com/shows/6068/the-bill-cunningham-show
p4739
aVhttp://www.tvmaze.com/shows/2821/six-degrees-of-everything
p4740
aVhttp://www.tvmaze.com/shows/15577/toddlers-tiaras
p4741
aVhttp://www.tvmaze.com/shows/1353/wild-grinders
p4742
aVhttp://www.tvmaze.com/shows/27498/the-problem-solverz
p4743
aVhttp://www.tvmaze.com/shows/26839/my-super-sweet-16
p4744
aVhttp://www.tvmaze.com/shows/10611/bristol-palin-lifes-a-tripp
p4745
aVhttp://www.tvmaze.com/shows/22326/the-adventures-of-paddy-the-pelican
p4746
aVhttp://www.tvmaze.com/shows/28161/the-nutshack
p4747
aVhttp://www.tvmaze.com/shows/21642/the-world-according-to-paris
p4748
aVhttp://www.tvmaze.com/shows/24979/celebrity-splash
p4749
aFnan
aVhttp://www.tvmaze.com/shows/17470/a-current-affair
p4750
aVhttp://www.tvmaze.com/shows/10031/almost-genius
p4751
aVhttp://www.tvmaze.com/shows/20107/react-do-they-know-it
p4752
aVhttp://www.tvmaze.com/shows/13778/outrageous-kid-parties
p4753
aVhttp://www.tvmaze.com/shows/27772/the-fox-news-specialists
p4754
aVhttp://www.tvmaze.com/shows/9653/the-high-fructose-adventures-of-annoying-orange
p4755
aVhttp://www.tvmaze.com/shows/15368/the-real-housewives-of-dc
p4756
aVhttp://www.tvmaze.com/shows/21795/h8r
p4757
aVhttp://www.tvmaze.com/shows/13192/awesomenesstv
p4758
aVhttp://www.tvmaze.com/shows/7503/single-white-spenny
p4759
aVhttp://www.tvmaze.com/shows/18826/living-lohan
p4760
aVhttp://www.tvmaze.com/shows/18000/little-miss-perfect
p4761
aVhttp://www.tvmaze.com/shows/5792/here-comes-honey-boo-boo
p4762
aVhttp://www.tvmaze.com/shows/23399/high-society
p4763
aVhttp://www.tvmaze.com/shows/16680/the-swan
p4764
aVhttp://www.tvmaze.com/shows/25685/monster-warriors
p4765
aVhttp://www.tvmaze.com/shows/11488/tickety-toc
p4766
aVhttp://www.tvmaze.com/shows/21327/anchorwoman
p4767
aVhttp://www.tvmaze.com/shows/22084/ben-10
p4768
aVhttp://www.tvmaze.com/shows/10630/caspers-scare-school
p4769
aVhttp://www.tvmaze.com/shows/23404/southern-fried-stings
p4770
aVhttp://www.tvmaze.com/shows/3989/fashionably-late-with-rachel-zoe
p4771
aVhttp://www.tvmaze.com/shows/27942/killer-contact
p4772
aFnan
aFnan
aFnan
aFnan
aFnan
aFnan
aFnan
aVhttp://www.tvmaze.com/shows/27854/being-lara-bingle
p4773
aVhttp://www.tvmaze.com/shows/575/keeping-up-with-the-kardashians
p4774
aVhttp://www.tvmaze.com/shows/4711/i-live-with-models
p4775
aVhttp://www.tvmaze.com/shows/29066/the-z-virus
p4776
aVhttp://www.tvmaze.com/shows/390/last-call-with-carson-daly
p4777
aVhttp://www.tvmaze.com/shows/5493/the-real-housewives-of-miami
p4778
aFnan
aFnan
aFnan
aFnan
aFnan
aFnan
aFnan
aFnan
aFnan
aFnan
aFnan
aFnan
aFnan
aFnan
aFnan
aFnan
aFnan
aFnan
aFnan
aFnan
aFnan
aFnan
aFnan
aVhttp://www.tvmaze.com/shows/6048/the-view
p4779
aVhttp://www.tvmaze.com/shows/6936/breadwinners
p4780
aVhttp://www.tvmaze.com/shows/6853/kocktails-with-khloe
p4781
aVhttp://www.tvmaze.com/shows/5424/horne-and-corden
p4782
aVhttp://www.tvmaze.com/shows/4815/brooke-knows-best
p4783
aVhttp://www.tvmaze.com/shows/24852/pregnant-dating
p4784
aVhttp://www.tvmaze.com/shows/8707/bromance
p4785
aVhttp://www.tvmaze.com/shows/21198/howie-do-it
p4786
aVhttp://www.tvmaze.com/shows/24229/baps
p4787
aVhttp://www.tvmaze.com/shows/9247/upload-with-shaquille-oneal
p4788
aVhttp://www.tvmaze.com/shows/17668/chains-of-love
p4789
aFnan
aFnan
aFnan
aFnan
aFnan
aFnan
aFnan
aFnan
aFnan
aFnan
aFnan
aFnan
aFnan
aFnan
aFnan
aFnan
aFnan
aFnan
aFnan
aFnan
aFnan
aVhttp://www.tvmaze.com/shows/914/the-bachelor
p4790
aVhttp://www.tvmaze.com/shows/10674/marvin-marvin
p4791
aVhttp://www.tvmaze.com/shows/12937/hole-in-the-wall
p4792
aVhttp://www.tvmaze.com/shows/21505/sunset-tan
p4793
aVhttp://www.tvmaze.com/shows/26707/bridalplasty
p4794
aVhttp://www.tvmaze.com/shows/24110/smoky-mountain-money
p4795
aVhttp://www.tvmaze.com/shows/6122/15-kids-and-counting
p4796
aFnan
aFnan
aFnan
aFnan
aFnan
aFnan
aFnan
aFnan
aFnan
aFnan
aFnan
aFnan
aFnan
aFnan
aFnan
aFnan
aFnan
aFnan
aFnan
aFnan
aFnan
aFnan
aVhttp://www.tvmaze.com/shows/743/the-bachelorette
p4797
aVhttp://www.tvmaze.com/shows/2098/the-only-way-is-essex
p4798
aVhttp://www.tvmaze.com/shows/4865/16-and-pregnant
p4799
aVhttp://www.tvmaze.com/shows/26780/mind-of-mencia
p4800
aVhttp://www.tvmaze.com/shows/959/operation-repo
p4801
aVhttp://www.tvmaze.com/shows/9263/amish-mafia
p4802
aVhttp://www.tvmaze.com/shows/10016/the-devils-ride
p4803
aVhttp://www.tvmaze.com/shows/2314/the-josh-wolf-show
p4804
aVhttp://www.tvmaze.com/shows/5219/bet-on-your-baby
p4805
aVhttp://www.tvmaze.com/shows/23202/preach
p4806
aFnan
aFnan
aFnan
aFnan
aFnan
aFnan
aFnan
aFnan
aFnan
aFnan
aFnan
aFnan
aFnan
aFnan
aFnan
aFnan
aFnan
aVhttp://www.tvmaze.com/shows/5614/fanboy-chum-chum
p4807
aVhttp://www.tvmaze.com/shows/419/snooki-jwoww
p4808
aVhttp://www.tvmaze.com/shows/5713/level-up
p4809
aVhttp://www.tvmaze.com/shows/9950/supernoobs
p4810
aVhttp://www.tvmaze.com/shows/13904/rocket-monkeys
p4811
aVhttp://www.tvmaze.com/shows/2937/say-yes-to-the-dress-canada
p4812
aVhttp://www.tvmaze.com/shows/19519/boys-before-friends
p4813
aVhttp://www.tvmaze.com/shows/14508/the-gc
p4814
aVhttp://www.tvmaze.com/shows/21526/katie
p4815
aVhttp://www.tvmaze.com/shows/19980/thats-amore
p4816
aFnan
aFnan
aFnan
aFnan
aFnan
aFnan
aFnan
aFnan
aFnan
aFnan
aFnan
aFnan
aFnan
aFnan
aFnan
aFnan
aFnan
aFnan
aFnan
aFnan
aFnan
aFnan
aFnan
aFnan
aVhttp://www.tvmaze.com/shows/25277/cloudy-with-a-chance-of-meatballs
p4817
aVhttp://www.tvmaze.com/shows/2204/kourtney-kim-take-miami
p4818
aVhttp://www.tvmaze.com/shows/18511/planet-sheen
p4819
aVhttp://www.tvmaze.com/shows/4893/work-it
p4820
aVhttp://www.tvmaze.com/shows/5597/saf3
p4821
aVhttp://www.tvmaze.com/shows/8616/pawn-stars-uk
p4822
aVhttp://www.tvmaze.com/shows/12029/the-internet-ruined-my-life
p4823
aVhttp://www.tvmaze.com/shows/2407/sex-with-brody
p4824
aFnan
aFnan
aFnan
aFnan
aFnan
aFnan
aFnan
aFnan
aFnan
aFnan
aFnan
aFnan
aFnan
aFnan
aFnan
aFnan
aFnan
aFnan
aFnan
aFnan
aVhttp://www.tvmaze.com/shows/24135/extreme-guide-to-parenting
p4825
aVhttp://www.tvmaze.com/shows/14013/tyler-perrys-house-of-payne
p4826
aVhttp://www.tvmaze.com/shows/1138/the-inbetweeners
p4827
aVhttp://www.tvmaze.com/shows/969/19-kids-and-counting
p4828
aVhttp://www.tvmaze.com/shows/2369/talia-in-the-kitchen
p4829
aVhttp://www.tvmaze.com/shows/9066/the-factor
p4830
aVhttp://www.tvmaze.com/shows/6924/viva-laughlin
p4831
aFnan
aNaNaNaNaNaNaNaNaNaNaNaFnan
aNaNa(dp4832
Vcountry
p4833
(dp4834
Vtimezone
p4835
VAmerica/New_York
p4836
sVcode
p4837
VUS
p4838
sVname
p4839
VUnited States
p4840
ssVid
p4841
I21
sVname
p4842
VYouTube
p4843
saNaNaNaNaNaNaNaNaNaNaNaNaNaNaNaNaNaNaNaNaFnan
aFnan
aFnan
aFnan
aFnan
aFnan
aFnan
aNaNaNa(dp4844
Vcountry
p4845
(dp4846
Vtimezone
p4847
VAmerica/New_York
p4848
sVcode
p4849
VUS
p4850
sVname
p4851
VUnited States
p4852
ssVid
p4853
I201
sVname
p4854
VScreenMagic TV
p4855
saNaNaFnan
aFnan
aFnan
aFnan
aFnan
aFnan
aFnan
aFnan
aFnan
aFnan
aFnan
aFnan
aFnan
aFnan
aFnan
aFnan
aFnan
aFnan
aFnan
aFnan
aFnan
aFnan
aFnan
aNaNaNaNaNaNaNaNaNaNaNaFnan
aFnan
aFnan
aFnan
aFnan
aFnan
aFnan
aFnan
aFnan
aFnan
aFnan
aFnan
aFnan
aFnan
aFnan
aFnan
aFnan
aFnan
aFnan
aFnan
aFnan
aNaNaNaNaNaNaNaFnan
aFnan
aFnan
aFnan
aFnan
aFnan
aFnan
aFnan
aFnan
aFnan
aFnan
aFnan
aFnan
aFnan
aFnan
aFnan
aFnan
aFnan
aFnan
aFnan
aFnan
aFnan
aNaNaNaNaNaNaNaNaNaNaFnan
aFnan
aFnan
aFnan
aFnan
aFnan
aFnan
aFnan
aFnan
aFnan
aFnan
aFnan
aFnan
aFnan
aFnan
aFnan
aFnan
aNaNaNaNaNaNa(dp4856
Vcountry
p4857
(dp4858
Vtimezone
p4859
VAsia/Singapore
p4860
sVcode
p4861
VSG
p4862
sVname
p4863
VSingapore
p4864
ssVid
p4865
I91
sVname
p4866
VViki
p4867
saNaNaNaFnan
aFnan
aFnan
aFnan
aFnan
aFnan
aFnan
aFnan
aFnan
aFnan
aFnan
aFnan
aFnan
aFnan
aFnan
aFnan
aFnan
aFnan
aFnan
aFnan
aFnan
aFnan
aFnan
aFnan
aNaNaNaNaNaNaNaNaFnan
aFnan
aFnan
aFnan
aFnan
aFnan
aFnan
aFnan
aFnan
aFnan
aFnan
aFnan
aFnan
aFnan
aFnan
aFnan
aFnan
aFnan
aFnan
aFnan
aNaNaNaNaNaNaNaFnan
aI63
aI0
aI0
aI6
aI0
aI0
aI0
aI20
aI0
aI0
aI0
aFnan
aI0
aI0
aI17
aI0
aI76
aI49
aI9
aI19
aI0
aI0
aI0
aI0
aI72
aI0
aI0
aI0
aI0
aI0
aI55
aI0
aI0
aI0
aI0
aFnan
aFnan
aFnan
aFnan
aFnan
aFnan
aFnan
aI0
aI90
aI40
aI95
aI72
aI41
aFnan
aFnan
aFnan
aFnan
aFnan
aFnan
aFnan
aFnan
aFnan
aFnan
aFnan
aFnan
aFnan
aFnan
aFnan
aFnan
aFnan
aFnan
aFnan
aFnan
aFnan
aFnan
aFnan
aI77
aI44
aI0
aI40
aI0
aI0
aI0
aI0
aI0
aI0
aI0
aFnan
aFnan
aFnan
aFnan
aFnan
aFnan
aFnan
aFnan
aFnan
aFnan
aFnan
aFnan
aFnan
aFnan
aFnan
aFnan
aFnan
aFnan
aFnan
aFnan
aFnan
aI77
aI0
aI0
aI0
aI0
aI0
aI0
aFnan
aFnan
aFnan
aFnan
aFnan
aFnan
aFnan
aFnan
aFnan
aFnan
aFnan
aFnan
aFnan
aFnan
aFnan
aFnan
aFnan
aFnan
aFnan
aFnan
aFnan
aFnan
aI96
aI18
aI76
aI59
aI0
aI0
aI0
aI0
aI0
aI0
aFnan
aFnan
aFnan
aFnan
aFnan
aFnan
aFnan
aFnan
aFnan
aFnan
aFnan
aFnan
aFnan
aFnan
aFnan
aFnan
aFnan
aI0
aI0
aI41
aI0
aI0
aI0
aI0
aI0
aI18
aI0
aFnan
aFnan
aFnan
aFnan
aFnan
aFnan
aFnan
aFnan
aFnan
aFnan
aFnan
aFnan
aFnan
aFnan
aFnan
aFnan
aFnan
aFnan
aFnan
aFnan
aFnan
aFnan
aFnan
aFnan
aI25
aI0
aI0
aI0
aI0
aI0
aI0
aI23
aFnan
aFnan
aFnan
aFnan
aFnan
aFnan
aFnan
aFnan
aFnan
aFnan
aFnan
aFnan
aFnan
aFnan
aFnan
aFnan
aFnan
aFnan
aFnan
aFnan
aI0
aI0
aI4
aI0
aI0
aI48
aI0
aFnan
atp4868
ba(lp4869
g15
(g16
(dp4870
g18
g19
(g20
(I0
tp4871
g22
tp4872
Rp4873
(I1
(I1
tp4874
g29
I00
(lp4875
g33
atp4876
bsg56
Nstp4877
Rp4878
ag15
(g16
(dp4879
g18
g19
(g20
(I0
tp4880
g22
tp4881
Rp4882
(I1
(I1
tp4883
g29
I00
(lp4884
g34
atp4885
bsg56
Nstp4886
Rp4887
ag15
(g16
(dp4888
g18
g19
(g20
(I0
tp4889
g22
tp4890
Rp4891
(I1
(I5
tp4892
g29
I00
(lp4893
g35
ag36
ag37
ag38
ag39
atp4894
bsg56
Nstp4895
Rp4896
ag15
(g16
(dp4897
g18
g19
(g20
(I0
tp4898
g22
tp4899
Rp4900
(I1
(I2
tp4901
g29
I00
(lp4902
g40
ag41
atp4903
bsg56
Nstp4904
Rp4905
ag15
(g16
(dp4906
g18
g19
(g20
(I0
tp4907
g22
tp4908
Rp4909
(I1
(I6
tp4910
g29
I00
(lp4911
g42
ag43
ag44
ag45
ag46
ag47
atp4912
bsg56
Nstp4913
Rp4914
ag15
(g16
(dp4915
g18
g19
(g20
(I0
tp4916
g22
tp4917
Rp4918
(I1
(I1
tp4919
g29
I00
(lp4920
g48
atp4921
bsg56
Nstp4922
Rp4923
ag15
(g16
(dp4924
g18
g19
(g20
(I0
tp4925
g22
tp4926
Rp4927
(I1
(I6
tp4928
g29
I00
(lp4929
g49
ag50
ag51
ag52
ag53
ag54
atp4930
bsg56
Nstp4931
Rp4932
a(dp4933
S'0.14.1'
p4934
(dp4935
S'axes'
p4936
g14
sS'blocks'
p4937
(lp4938
(dp4939
S'mgr_locs'
p4940
c__builtin__
slice
p4941
(I0
I1
I1
tp4942
Rp4943
sS'values'
p4944
g69
sa(dp4945
g4940
g4941
(I1
I2
I1
tp4946
Rp4947
sg4944
g916
sa(dp4948
g4940
g4941
(I2
I7
I1
tp4949
Rp4950
sg4944
g922
sa(dp4951
g4940
g4941
(I7
I9
I1
tp4952
Rp4953
sg4944
g2098
sa(dp4954
g4940
g4941
(I9
I15
I1
tp4955
Rp4956
sg4944
g2469
sa(dp4957
g4940
g4941
(I15
I16
I1
tp4958
Rp4959
sg4944
g4451
sa(dp4960
g4940
g4941
(I16
I22
I1
tp4961
Rp4962
sg4944
g4550
sasstp4963
bsb.